((dp0
VE
p1
L0L
sVU
p2
L1L
sV_
p3
L2L
sVlv4
p4
L3L
sVshi4
p5
L4L
sVyang2
p6
L5L
sVchun1
p7
L6L
sVyan1
p8
L7L
sVjing3
p9
L8L
sVda4
p10
L9L
sVkuai4
p11
L10L
sVwen2
p12
L11L
sVzhang1
p13
L12L
sVde
p14
L13L
sVdi3
p15
L14L
sVse4
p16
L15L
sVsi4
p17
L16L
sVyue4
p18
L17L
sVlin2
p19
L18L
sVluan2
p20
L19L
sVgeng4
p21
L20L
sVde2
p22
L21L
sVxian1
p23
L22L
sVhuo2
p24
L23L
sVxiu4
p25
L24L
sVmei4
p26
L25L
sVshi1
p27
L26L
sVyi4
p28
L27L
sVang4
p29
L28L
sVran2
p30
L29L
sVta1
p31
L30L
sVjin3
p32
L31L
sVping2
p33
L32L
sVyao1
p34
L33L
sVbu4
p35
L34L
sVli4
p36
L35L
sVliang4
p37
L36L
sVzai4
p38
L37L
sVyong3
p39
L38L
sVdao4
p40
L39L
sVshang4
p41
L40L
sVxia4
p42
L41L
sVfan1
p43
L42L
sVteng2
p44
L43L
sVdong4
p45
L44L
sVshe2
p46
L45L
sVxing2
p47
L46L
sVzhuang4
p48
L47L
sVru2
p49
L48L
sVhai3
p50
L49L
sVtun2
p51
L50L
sVyi1
p52
L51L
sVzhi2
p53
L52L
sVyi3
p54
L53L
sVtou2
p55
L54L
sVyou1
p56
L55L
sVling3
p57
L56L
sVpao4
p58
L57L
sVyan3
p59
L58L
sVda3
p60
L59L
sVhao3
p61
L60L
sVle
p62
L61L
sVzha4
p63
L62L
sVyao4
p64
L63L
sVzen3
p65
L64L
sVme
p66
L65L
sVzhuang1
p67
L66L
sVzheng4
p68
L67L
sVcai2
p69
L68L
sVyao3
p70
L69L
sVya2
p71
L70L
sVshu1
p72
L71L
sVtuo1
p73
L72L
sVqu4
p74
L73L
sVfu2
p75
L74L
sVguang1
p76
L75L
sVbang3
p77
L76L
sVzi
p78
L77L
sVchong1
p79
L78L
sVjin4
p80
L79L
sVshui3
p81
L80L
sVcuan4
p82
L81L
sVke3
p83
L82L
sVshei2
p84
L83L
sVzhi1
p85
L84L
sVwan2
p86
L85L
sVhou4
p87
L86L
sVzhao4
p88
L87L
sVjing4
p89
L88L
sVzhi3
p90
L89L
sVjian4
p91
L90L
sVzuo3
p92
L91L
sVjian3
p93
L92L
sVxian4
p94
L93L
sVyou4
p95
L94L
sVcu1
p96
L95L
sVhei1
p97
L96L
sVyu3
p98
L97L
sVce4
p99
L98L
sVming2
p100
L99L
sVxian3
p101
L100L
sVdui4
p102
L101L
sVcheng1
p103
L102L
sVqi1
p104
L103L
sVshi2
p105
L104L
sVnian2
p106
L105L
sVdai4
p107
L106L
sVmo4
p108
L107L
sVwo3
p109
L108L
sVwai4
p110
L109L
sVchu1
p111
L110L
sVqiu2
p112
L111L
sVxue2
p113
L112L
sVmu3
p114
L113L
sVqin1
p115
L114L
sVding1
p116
L115L
sVning2
p117
L116L
sVchi1
p118
L117L
sVfan4
p119
L118L
sVxi4
p120
L119L
sVjue2
p121
L120L
sVman4
p122
L121L
sVyan4
p123
L122L
sVxi2
p124
L123L
sVshen1
p125
L124L
sVzuan1
p126
L125L
sVyan2
p127
L126L
sVmen2
p128
L127L
sVbei4
p129
L128L
sVjing1
p130
L129L
sVdai1
p131
L130L
sVzhe4
p132
L131L
sVhu4
p133
L132L
sVjiao4
p134
L133L
sVpang2
p135
L134L
sVji2
p136
L135L
sVlao3
p137
L136L
sVnong2
p138
L137L
sVkang4
p139
L138L
sVmei3
p140
L139L
sVyuan2
p141
L140L
sVchao2
p142
L141L
sVfu4
p143
L142L
sVshang1
p144
L143L
sVhui2
p145
L144L
sVxiang1
p146
L145L
sVbing1
p147
L146L
sVzhang3
p148
L147L
sVyou3
p149
L148L
sVbing4
p150
L149L
sVjia1
p151
L150L
sVtu2
p152
L151L
sVbi4
p153
L152L
sVpin2
p154
L153L
sVxi3
p155
L154L
sVzou3
p156
L155L
sVcun1
p157
L156L
sVyuan3
p158
L157L
sVhai2
p159
L158L
sVwang4
p160
L159L
sVna4
p161
L160L
sVge4
p162
L161L
sVan1
p163
L162L
sVtian2
p164
L163L
sVxiao3
p165
L164L
sVyuan4
p166
L165L
sVshi3
p167
L166L
sVzhong1
p168
L167L
sVnan2
p169
L168L
sVer4
p170
L169L
sVri4
p171
L170L
sVzhu4
p172
L171L
sVxin1
p173
L172L
sVxi1
p174
L173L
sVluo2
p175
L174L
sVnian3
p176
L175L
sVwang2
p177
L176L
sVgang1
p178
L177L
sVzhu1
p179
L178L
sVzi4
p180
L179L
sVqing1
p181
L180L
sVxun4
p182
L181L
sVte4
p183
L182L
sVcong2
p184
L183L
sVdong1
p185
L184L
sVgan3
p186
L185L
sVlai2
p187
L186L
sVqing4
p188
L187L
sVhe4
p189
L188L
sVdan1
p190
L189L
sVwei4
p191
L190L
sVdie1
p192
L191L
sVkai1
p193
L192L
sVshen2
p194
L193L
sVci4
p195
L194L
sVgu4
p196
L195L
sVneng2
p197
L196L
sVba3
p198
L197L
sVji3
p199
L198L
sVbao1
p200
L199L
sVwang3
p201
L200L
sVxiao4
p202
L201L
sVshuai3
p203
L202L
sVdou1
p204
L203L
sVyong4
p205
L204L
sVcao3
p206
L205L
sVmao4
p207
L206L
sVhuo4
p208
L207L
sVge1
p209
L208L
sVbo2
p210
L209L
sVzhou3
p211
L210L
sVzhe
p212
L211L
sVwan3
p213
L212L
sVlie4
p214
L213L
sVju1
p215
L214L
sVchuan1
p216
L215L
sVguo4
p217
L216L
sVlan4
p218
L217L
sVni2
p219
L218L
sVtang2
p220
L219L
sVban1
p221
L220L
sVba4
p222
L221L
sVpao3
p223
L222L
sVsu4
p224
L223L
sVshe3
p225
L224L
sVgang3
p226
L225L
sVquan1
p227
L226L
sVhuan1
p228
L227L
sVying2
p229
L228L
sVmao2
p230
L229L
sVa1
p231
L230L
sVmin3
p232
L231L
sVmeng2
p233
L232L
sVwu2
p234
L233L
sVtai2
p235
L234L
sVhua2
p236
L235L
sVxing1
p237
L236L
sVxie1
p238
L237L
sVzhong4
p239
L238L
sVchang4
p240
L239L
sVqing3
p241
L240L
sVchang3
p242
L241L
sVpai2
p243
L242L
sVya1
p244
L243L
sVzhou2
p245
L244L
sVban4
p246
L245L
sVhuang2
p247
L246L
sVgua1
p248
L247L
sVjiang1
p249
L248L
sVqie4
p250
L249L
sVpian4
p251
L250L
sVcu4
p252
L251L
sVma2
p253
L252L
sVyou2
p254
L253L
sVjie2
p255
L254L
sVguo3
p256
L255L
sVwa3
p257
L256L
sVwan4
p258
L257L
sVsan3
p259
L258L
sVer2
p260
L259L
sVshuai1
p261
L260L
sVsi3
p262
L261L
sVka3
p263
L262L
sVcao1
p264
L263L
sVzong4
p265
L264L
sVjiang4
p266
L265L
sVluo4
p267
L266L
sVzha1
p268
L267L
sVcai3
p269
L268L
sVfu1
p270
L269L
sVnv3
p271
L270L
sVgao1
p272
L271L
sVya3
p273
L272L
sVye3
p274
L273L
sVying3
p275
L274L
sVbiao3
p276
L275L
sVbie2
p277
L276L
sVzhi4
p278
L277L
sVye4
p279
L278L
sVzui4
p280
L279L
sVren2
p281
L280L
sVjun1
p282
L281L
sVduo1
p283
L282L
sVyu4
p284
L283L
sVze2
p285
L284L
sVtan1
p286
L285L
sVmu4
p287
L286L
sVgui4
p288
L287L
sVbai4
p289
L288L
sVsang4
p290
L289L
sVmen
p291
L290L
sVjiu4
p292
L291L
sVyin1
p293
L292L
sVxiang3
p294
L293L
sVhuai4
p295
L294L
sVma1
p296
L295L
sVrang4
p297
L296L
sVxiu1
p298
L297L
sVcheng2
p299
L298L
sVyang4
p300
L299L
sVfan3
p301
L300L
sVzan2
p302
L301L
sVdi1
p303
L302L
sVshuo1
p304
L303L
sVsha2
p305
L304L
sVzuo4
p306
L305L
sVben3
p307
L306L
sVmei2
p308
L307L
sVma3
p309
L308L
sVna3
p310
L309L
sVyun2
p311
L310L
sVxia2
p312
L311L
sVjin1
p313
L312L
sVtian1
p314
L313L
sVla
p315
L314L
sVci3
p316
L315L
sVju3
p317
L316L
sVcuo4
p318
L317L
sVyu2
p319
L318L
sVhang2
p320
L319L
sVzhou1
p321
L320L
sVwa2
p322
L321L
sVha1
p323
L322L
sVpin3
p324
L323L
sVtuan2
p325
L324L
sVgong1
p326
L325L
sVsi1
p327
L326L
sVzong3
p328
L327L
sVli3
p329
L328L
sVzong1
p330
L329L
sVji1
p331
L330L
sVshan1
p332
L331L
sVnong4
p333
L332L
sVyao2
p334
L333L
sVai4
p335
L334L
sVkou3
p336
L335L
sVzhen4
p337
L336L
sVqiong2
p338
L337L
sVdang1
p339
L338L
sVque4
p340
L339L
sVbai3
p341
L340L
sVweng1
p342
L341L
sVqian1
p343
L342L
sVhua4
p344
L343L
sVzheng1
p345
L344L
sVyun4
p346
L345L
sVqi2
p347
L346L
sVfeng1
p348
L347L
sVqu1
p349
L348L
sVhe2
p350
L349L
sVsu2
p351
L350L
sVgong4
p352
L351L
sVshang3
p353
L352L
sVjiu1
p354
L353L
sVding4
p355
L354L
sVqing2
p356
L355L
sVzhuan1
p357
L356L
sVlan2
p358
L357L
sVsan1
p359
L358L
sVshu4
p360
L359L
sVwu3
p361
L360L
sVgao4
p362
L361L
sVceng2
p363
L362L
sVzu2
p364
L363L
sVbian4
p365
L364L
sVnei4
p366
L365L
sVdan4
p367
L366L
sVhuai2
p368
L367L
sVsheng1
p369
L368L
sVyang3
p370
L369L
sVtu3
p371
L370L
sVchan3
p372
L371L
sVzao3
p373
L372L
sVtai1
p374
L373L
sVying1
p375
L374L
sVfang4
p376
L375L
sVbao3
p377
L376L
sVcun2
p378
L377L
sVchen2
p379
L378L
sVtong2
p380
L379L
sVgan4
p381
L380L
sVren4
p382
L381L
sVzhen1
p383
L382L
sVwu4
p384
L383L
sVtong1
p385
L384L
sVxiang4
p386
L385L
sVwo4
p387
L386L
sVming4
p388
L387L
sVling4
p389
L388L
sVji4
p390
L389L
sVwei2
p391
L390L
sVe2
p392
L391L
sVlian2
p393
L392L
sVbang1
p394
L393L
sVfa3
p395
L394L
sVguo2
p396
L395L
sVlu4
p397
L396L
sVsun1
p398
L397L
sVxu2
p399
L398L
sVdeng3
p400
L399L
sVguan1
p401
L400L
sVna2
p402
L401L
sVshou3
p403
L402L
sVgui1
p404
L403L
sVmo2
p405
L404L
sVfa1
p406
L405L
sVzhan3
p407
L406L
sVtu1
p408
L407L
sVpo4
p409
L408L
sVzi1
p410
L409L
sVpi2
p411
L410L
sVgun3
p412
L411L
sVshuang1
p413
L412L
sVfang1
p414
L413L
sVqiang3
p415
L414L
sVkao4
p416
L415L
sVya4
p417
L416L
sVhong2
p418
L417L
sVxie2
p419
L418L
sVkan4
p420
L419L
sVdian4
p421
L420L
sVjia3
p422
L421L
sVshe4
p423
L422L
sVfan2
p424
L423L
sVkong1
p425
L424L
sVhua1
p426
L425L
sVwu1
p427
L426L
sVgui3
p428
L427L
sVhan2
p429
L428L
sVao4
p430
L429L
sVdi4
p431
L430L
sVliu4
p432
L431L
sVfang2
p433
L432L
sVquan2
p434
L433L
sVpei4
p435
L434L
sVtong3
p436
L435L
sVni3
p437
L436L
sVting1
p438
L437L
sVzao4
p439
L438L
sVzang1
p440
L439L
sVju4
p441
L440L
sVkuang4
p442
L441L
sVreng2
p443
L442L
sVqiang2
p444
L443L
sVci2
p445
L444L
sVduo2
p446
L445L
sVpo3
p447
L446L
sVhu1
p448
L447L
sVtai4
p449
L448L
sVjie3
p450
L449L
sVwen4
p451
L450L
sVti2
p452
L451L
sVpan4
p453
L452L
sVxu1
p454
L453L
sVheng2
p455
L454L
sVchi3
p456
L455L
sVhui4
p457
L456L
sVlun4
p458
L457L
sVbai2
p459
L458L
sVwei1
p460
L459L
sVkun1
p461
L460L
sVlun2
p462
L461L
sVyong1
p463
L462L
sVhan4
p464
L463L
sVhuan4
p465
L464L
sVxing4
p466
L465L
sVzhan1
p467
L466L
sVlao2
p468
L467L
sVlei4
p469
L468L
sVtong4
p470
L469L
sVren3
p471
L470L
sVwan1
p472
L471L
sVman3
p473
L472L
sVbian1
p474
L473L
sVlu2
p475
L474L
sVsen1
p476
L475L
sVduan3
p477
L476L
sVa
p478
L477L
sVer3
p479
L478L
sVchan4
p480
L479L
sVsang3
p481
L480L
sVqin2
p482
L481L
sVxin4
p483
L482L
sVxiao1
p484
L483L
sVsan4
p485
L484L
sVbao4
p486
L485L
sVleng3
p487
L486L
sVsui4
p488
L487L
sVqian2
p489
L488L
sVqu3
p490
L489L
sVxu4
p491
L490L
sVgai4
p492
L491L
sVnian4
p493
L492L
sVpu3
p494
L493L
sVe4
p495
L494L
sVhao4
p496
L495L
sVnu4
p497
L496L
sVfen4
p498
L497L
sVpai1
p499
L498L
sVan4
p500
L499L
sVqi3
p501
L500L
sVchi4
p502
L501L
sVpai4
p503
L502L
sVbei1
p504
L503L
sVbi3
p505
L504L
sVga1
p506
L505L
sVxue3
p507
L506L
sVzai1
p508
L507L
sVwo1
p509
L508L
sVzhong3
p510
L509L
sVchi2
p511
L510L
sVfou3
p512
L511L
sVsun3
p513
L512L
sVzan4
p514
L513L
sVbei3
p515
L514L
sVyue1
p516
L515L
sVkuo4
p517
L516L
sVou1
p518
L517L
sVzu3
p519
L518L
sVsuo3
p520
L519L
sVle4
p521
L520L
sVkuang2
p522
L521L
sVguang3
p523
L522L
sVbo1
p524
L523L
sVsou1
p525
L524L
sVxun2
p526
L525L
sVting3
p527
L526L
sVbang4
p528
L527L
sVqian3
p529
L528L
sVguan3
p530
L529L
sVqi4
p531
L530L
sVnu3
p532
L531L
sVdu4
p533
L532L
sVju2
p534
L533L
sVmian4
p535
L534L
sVchou2
p536
L535L
sVmin2
p537
L536L
sVhen3
p538
L537L
sVkua4
p539
L538L
sVgai1
p540
L539L
sVqian4
p541
L540L
sVshou4
p542
L541L
sVshao3
p543
L542L
sVrou4
p544
L543L
sVcai4
p545
L544L
sVxun1
p546
L545L
sVchu2
p547
L546L
sVxuan3
p548
L547L
sVcan1
p549
L548L
sVsai4
p550
L549L
sVjie1
p551
L550L
sVru4
p552
L551L
sVdao3
p553
L552L
sVluan4
p554
L553L
sVchao3
p555
L554L
sVdun4
p556
L555L
sVniao3
p557
L556L
sVchui1
p558
L557L
sVling2
p559
L558L
sVhun2
p560
L559L
sVhong1
p561
L560L
sVpeng2
p562
L561L
sVfen1
p563
L562L
sVquan4
p564
L563L
sVcang1
p565
L564L
sVgen1
p566
L565L
sVtan3
p567
L566L
sVfang3
p568
L567L
sVshua1
p569
L568L
sVbing3
p570
L569L
sVchuo1
p571
L570L
sVdian3
p572
L571L
sVshun4
p573
L572L
sVcha4
p574
L573L
sVpao1
p575
L574L
sVgou4
p576
L575L
sVmai3
p577
L576L
sVni4
p578
L577L
sVliu2
p579
L578L
sVdiao1
p580
L579L
sVliang3
p581
L580L
sVding3
p582
L581L
sVchuan2
p583
L582L
sVting2
p584
L583L
sVtao1
p585
L584L
sVniu2
p586
L585L
sVguan4
p587
L586L
sVhuo3
p588
L587L
sVkao3
p589
L588L
sVliu3
p590
L589L
sVjiu3
p591
L590L
sVjiao1
p592
L591L
sVmi4
p593
L592L
sVchai1
p594
L593L
sVmeng4
p595
L594L
sVlong2
p596
L595L
sVguai4
p597
L596L
sVpin1
p598
L597L
sVsha1
p599
L598L
sVmi3
p600
L599L
sVtan2
p601
L600L
sVtou1
p602
L601L
sVxue4
p603
L602L
sVli2
p604
L603L
sVxiong1
p605
L604L
sVmou3
p606
L605L
sVrong2
p607
L606L
sVlei3
p608
L607L
sVge2
p609
L608L
sVke1
p610
L609L
sVku3
p611
L610L
sVzhan4
p612
L611L
sVshan3
p613
L612L
sVsong4
p614
L613L
sVduan4
p615
L614L
sVche1
p616
L615L
sVhu2
p617
L616L
sVhai4
p618
L617L
sVsao3
p619
L618L
sVmai4
p620
L619L
sVyin2
p621
L620L
sVpiao2
p622
L621L
sVchang1
p623
L622L
sVdu3
p624
L623L
sVdu2
p625
L624L
sVguai3
p626
L625L
sVyin3
p627
L626L
sVtui4
p628
L627L
sVshen3
p629
L628L
sVban3
p630
L629L
sVying4
p631
L630L
sVlang3
p632
L631L
sVchuang2
p633
L632L
sVnu2
p634
L633L
sVzao1
p635
L634L
sVkeng1
p636
L635L
sVzhe3
p637
L636L
sVtan4
p638
L637L
sVtao3
p639
L638L
sVchang2
p640
L639L
sVyang1
p641
L640L
sVmiao2
p642
L641L
sVcha1
p643
L642L
sVba1
p644
L643L
sVyi2
p645
L644L
sVku4
p646
L645L
sVda2
p647
L646L
sVdun1
p648
L647L
sVqiang1
p649
L648L
sVzhui1
p650
L649L
sVwa1
p651
L650L
sVcha2
p652
L651L
sVnai3
p653
L652L
sVtao4
p654
L653L
sVlou2
p655
L654L
sVkang1
p656
L655L
sVjian1
p657
L656L
sVou3
p658
L657L
sVyun3
p659
L658L
sVxu3
p660
L659L
sVbin4
p661
L660L
sVjuan3
p662
L661L
sVpan2
p663
L662L
sVsu1
p664
L663L
sVsui2
p665
L664L
sVzhua1
p666
L665L
sVwei3
p667
L666L
sVrun4
p668
L667L
sVchai2
p669
L668L
sVbiao1
p670
L669L
sVzeng1
p671
L670L
sVkan1
p672
L671L
sVpei2
p673
L672L
sVla1
p674
L673L
sVre4
p675
L674L
sVyin4
p676
L675L
sVtou4
p677
L676L
sVkong4
p678
L677L
sVke4
p679
L678L
sVshao4
p680
L679L
sVhuan2
p681
L680L
sVpa4
p682
L681L
sVku1
p683
L682L
sVgou1
p684
L683L
sVqun2
p685
L684L
sVlia3
p686
L685L
sVcou4
p687
L686L
sVgu3
p688
L687L
sVtie3
p689
L688L
sVzhai4
p690
L689L
sVlei2
p691
L690L
sVzuo2
p692
L691L
sVsheng3
p693
L692L
sVai1
p694
L693L
sVsong1
p695
L694L
sVche4
p696
L695L
sVgai3
p697
L696L
sVwang1
p698
L697L
sVkuan3
p699
L698L
sVti3
p700
L699L
sVkui1
p701
L700L
sVcui4
p702
L701L
sVzhu3
p703
L702L
sVhun1
p704
L703L
sVmie4
p705
L704L
sVzhou4
p706
L705L
sVmian2
p707
L706L
sVtao2
p708
L707L
sVpo2
p709
L708L
sVpu1
p710
L709L
sVshao1
p711
L710L
sVfei4
p712
L711L
sVdou3
p713
L712L
sVwen3
p714
L713L
sVcao2
p715
L714L
sVben1
p716
L715L
sVdiao4
p717
L716L
sVtiao2
p718
L717L
sVnve4
p719
L718L
sVchu4
p720
L719L
sVfa2
p721
L720L
sVliao2
p722
L721L
sVnuo4
p723
L722L
sVfu3
p724
L723L
sVla4
p725
L724L
sVfei2
p726
L725L
sVpiao4
p727
L726L
sVchun2
p728
L727L
sVjie4
p729
L728L
sVmian3
p730
L729L
sVgei3
p731
L730L
sVca1
p732
L731L
sVzui3
p733
L732L
sVlian3
p734
L733L
sVjuan4
p735
L734L
sVmou2
p736
L735L
sVchan2
p737
L736L
sVhe1
p738
L737L
sVzhuan3
p739
L738L
sVzhun3
p740
L739L
sVpa2
p741
L740L
sVlang4
p742
L741L
sVpin4
p743
L742L
sVnie4
p744
L743L
sVmang2
p745
L744L
sVbu3
p746
L745L
sVzhuo1
p747
L746L
sVma4
p748
L747L
sVhun4
p749
L748L
sVzhang4
p750
L749L
sVliao4
p751
L750L
sVjia4
p752
L751L
sVlv3
p753
L752L
sVtuo2
p754
L753L
sVchao1
p755
L754L
sVzhao3
p756
L755L
sVxia1
p757
L756L
sVmiao4
p758
L757L
sVpeng3
p759
L758L
sVqie3
p760
L759L
sVsai1
p761
L760L
sVpen1
p762
L761L
sVtui1
p763
L762L
sVzun1
p764
L763L
sVmeng3
p765
L764L
sVfei1
p766
L765L
sVniang2
p767
L766L
sVgu1
p768
L767L
sVchu3
p769
L768L
sVsuan4
p770
L769L
sVfeng2
p771
L770L
sVxuan2
p772
L771L
sVwen1
p773
L772L
sVgan1
p774
L773L
sVai2
p775
L774L
sVlian4
p776
L775L
sVjiang3
p777
L776L
sVpian1
p778
L777L
sVque1
p779
L778L
sVsui1
p780
L779L
sVrou2
p781
L780L
sVhui1
p782
L781L
sVzheng3
p783
L782L
sVnao3
p784
L783L
sVzhai3
p785
L784L
sVyun1
p786
L785L
sVruan3
p787
L786L
sVqiao4
p788
L787L
sVbin1
p789
L788L
sVcan2
p790
L789L
sVpi1
p791
L790L
sVshou1
p792
L791L
sVgua4
p793
L792L
sVlu3
p794
L793L
sVrui4
p795
L794L
sVtuo4
p796
L795L
sVqiao2
p797
L796L
sVtang3
p798
L797L
sVfen3
p799
L798L
sVjiao3
p800
L799L
sVsao1
p801
L800L
sVrao3
p802
L801L
sVmi2
p803
L802L
sVkun4
p804
L803L
sVruo4
p805
L804L
sVye2
p806
L805L
sVcong1
p807
L806L
sVzei2
p808
L807L
sVen1
p809
L808L
sVpeng4
p810
L809L
sVza2
p811
L810L
sVzang4
p812
L811L
sVdeng1
p813
L812L
sVxing3
p814
L813L
sVdiu1
p815
L814L
sVchuan4
p816
L815L
sVpa1
p817
L816L
sVdou4
p818
L817L
sVsheng4
p819
L818L
sVmai2
p820
L819L
sVxie4
p821
L820L
sVpiao1
p822
L821L
sVhao2
p823
L822L
sVliang2
p824
L823L
sVbo
p825
L824L
sVliao1
p826
L825L
sVshu3
p827
L826L
sVshui4
p828
L827L
sVchuang1
p829
L828L
sVwai1
p830
L829L
sVdian1
p831
L830L
sVchong3
p832
L831L
sVchong2
p833
L832L
sVao2
p834
L833L
sVsa4
p835
L834L
sVran3
p836
L835L
sVnao4
p837
L836L
sVpen2
p838
L837L
sVsang1
p839
L838L
sVnen4
p840
L839L
sVniu3
p841
L840L
sVya
p842
L841L
sVlang2
p843
L842L
sVsuo1
p844
L843L
sVhuang3
p845
L844L
sVbo3
p846
L845L
sVma
p847
L846L
sVyuan1
p848
L847L
sVqiu1
p849
L848L
sVti4
p850
L849L
sVhuang1
p851
L850L
sVzhuo2
p852
L851L
sVchou1
p853
L852L
sVba2
p854
L853L
sVcang2
p855
L854L
sVzhen3
p856
L855L
sVxiong2
p857
L856L
sVdi2
p858
L857L
sVtun1
p859
L858L
sVshuo4
p860
L859L
sVnin2
p861
L860L
sVxuan1
p862
L861L
sVshu2
p863
L862L
sVkang2
p864
L863L
sVduan1
p865
L864L
sVshai4
p866
L865L
sVken3
p867
L866L
sVdang3
p868
L867L
sVchuang4
p869
L868L
sVzan1
p870
L869L
sVshao2
p871
L870L
sVxian2
p872
L871L
sVtiao4
p873
L872L
sVzhe2
p874
L873L
sVgua3
p875
L874L
sVzhao1
p876
L875L
sVpan1
p877
L876L
sVzhu2
p878
L877L
sVhui3
p879
L878L
sVshan4
p880
L879L
sVdie2
p881
L880L
sVpi3
p882
L881L
sVpu4
p883
L882L
sVceng1
p884
L883L
sVshi
p885
L884L
sVti1
p886
L885L
sVchuai4
p887
L886L
sVkui2
p888
L887L
sVgong3
p889
L888L
sVkua3
p890
L889L
sVping1
p891
L890L
sVpang1
p892
L891L
sVang2
p893
L892L
sVmiao3
p894
L893L
sVkong3
p895
L894L
sVlu1
p896
L895L
sVnai4
p897
L896L
sVzeng4
p898
L897L
sVpo1
p899
L898L
sVsheng2
p900
L899L
sVshuan1
p901
L900L
sVxie3
p902
L901L
sVzai3
p903
L902L
sVdai3
p904
L903L
sVru3
p905
L904L
sVkou4
p906
L905L
sVmao1
p907
L906L
sVluan3
p908
L907L
sVbeng1
p909
L908L
sVgou3
p910
L909L
sVliu1
p911
L910L
sVshua3
p912
L911L
sVzhuan4
p913
L912L
sVguo1
p914
L913L
sVtiao1
p915
L914L
sVdao1
p916
L915L
sVcuo1
p917
L916L
sVcan3
p918
L917L
sVne
p919
L918L
sVgun4
p920
L919L
sVzha3
p921
L920L
sVlie3
p922
L921L
sVxiang2
p923
L922L
sVye1
p924
L923L
sVlve4
p925
L924L
sVche3
p926
L925L
sVkuang1
p927
L926L
sVheng1
p928
L927L
sVcui1
p929
L928L
sVbeng4
p930
L929L
sVtuo3
p931
L930L
sVgao3
p932
L931L
sVai3
p933
L932L
sVkun3
p934
L933L
sVdui1
p935
L934L
sVke2
p936
L935L
sVjuan1
p937
L936L
sVqia4
p938
L937L
sVjiong3
p939
L938L
sVpie1
p940
L939L
sVdang4
p941
L940L
sVkuan1
p942
L941L
sVchen4
p943
L942L
sVkai3
p944
L943L
sVqu2
p945
L944L
sVnuo2
p946
L945L
sVsuan1
p947
L946L
sVtui3
p948
L947L
sVrao4
p949
L948L
sVtie1
p950
L949L
sVgeng3
p951
L950L
sVqiao1
p952
L951L
sVxiu3
p953
L952L
sVhuan3
p954
L953L
sVlan3
p955
L954L
sVduo4
p956
L955L
sVgeng1
p957
L956L
sVhou2
p958
L957L
sVben4
p959
L958L
sVrui2
p960
L959L
sVseng1
p961
L960L
sVleng2
p962
L961L
sVzi3
p963
L962L
sVbao2
p964
L963L
sVduo3
p965
L964L
sVla2
p966
L965L
sVcan4
p967
L966L
sVbi1
p968
L967L
sVang1
p969
L968L
sVzhe1
p970
L969L
sVpang4
p971
L970L
sVchou4
p972
L971L
sVkui4
p973
L972L
sVdong3
p974
L973L
sVzhui4
p975
L974L
sVqia1
p976
L975L
sVshen4
p977
L976L
sVrang3
p978
L977L
sVnuan3
p979
L978L
sVpao2
p980
L979L
sVtang4
p981
L980L
sVtang1
p982
L981L
sVtu4
p983
L982L
sVne4
p984
L983L
sVreng1
p985
L984L
sVzha2
p986
L985L
sVrao2
p987
L986L
sVpi4
p988
L987L
sVka1
p989
L988L
sVjun4
p990
L989L
sVta3
p991
L990L
sVfeng4
p992
L991L
sVxue1
p993
L992L
sVdu1
p994
L993L
sVcheng3
p995
L994L
sVlao1
p996
L995L
sVfei3
p997
L996L
sVnang2
p998
L997L
sVguai1
p999
L998L
sVtuan1
p1000
L999L
sVpu2
p1001
L1000L
sVnie1
p1002
L1001L
sVlou4
p1003
L1002L
sVxuan4
p1004
L1003L
sVlai4
p1005
L1004L
sVsa3
p1006
L1005L
sVmo3
p1007
L1006L
sVci1
p1008
L1007L
sVqiao3
p1009
L1008L
sVdan3
p1010
L1009L
sVta4
p1011
L1010L
sVwa
p1012
L1011L
sVbi2
p1013
L1012L
sVchou3
p1014
L1013L
sVshuang3
p1015
L1014L
sVhan3
p1016
L1015L
sVzou4
p1017
L1016L
sVhan1
p1018
L1017L
sVdeng4
p1019
L1018L
sVpian2
p1020
L1019L
sVmiu4
p1021
L1020L
sVnei3
p1022
L1021L
sVceng4
p1023
L1022L
sVla3
p1024
L1023L
sVsha4
p1025
L1024L
sVre3
p1026
L1025L
sVhuo1
p1027
L1026L
sVning4
p1028
L1027L
sVfen2
p1029
L1028L
sVlou3
p1030
L1029L
sVchuai1
p1031
L1030L
sVhu3
p1032
L1031L
sVsa1
p1033
L1032L
sVcun4
p1034
L1033L
sVchuo4
p1035
L1034L
sVhen4
p1036
L1035L
sVchuang3
p1037
L1036L
sVqin3
p1038
L1037L
sVchui2
p1039
L1038L
sVshuai4
p1040
L1039L
sVzhai2
p1041
L1040L
sVwa4
p1042
L1041L
sVchuan3
p1043
L1042L
sVhai1
p1044
L1043L
sVsou4
p1045
L1044L
sVpei1
p1046
L1045L
sVlang1
p1047
L1046L
sVqin4
p1048
L1047L
sVjia2
p1049
L1048L
sVleng4
p1050
L1049L
sVhen2
p1051
L1050L
sVlong3
p1052
L1051L
sVba
p1053
L1052L
sVsha3
p1054
L1053L
sVda1
p1055
L1054L
sVkan3
p1056
L1055L
sVman2
p1057
L1056L
sVmi1
p1058
L1057L
sVniang4
p1059
L1058L
sVzhai1
p1060
L1059L
sVzu1
p1061
L1060L
sVga4
p1062
L1061L
sVcai1
p1063
L1062L
sVlv2
p1064
L1063L
sVsui3
p1065
L1064L
sVyu1
p1066
L1065L
sVshai1
p1067
L1066L
sVlei1
p1068
L1067L
sVmen4
p1069
L1068L
sVza3
p1070
L1069L
sVmo1
p1071
L1070L
sVluo3
p1072
L1071L
sVfeng3
p1073
L1072L
sVkua1
p1074
L1073L
sVniao4
p1075
L1074L
sVpeng1
p1076
L1075L
sVshe1
p1077
L1076L
sVni1
p1078
L1077L
sVtui2
p1079
L1078L
sVguang4
p1080
L1079L
sVzan3
p1081
L1080L
sVlin1
p1082
L1081L
sVxiao2
p1083
L1082L
sVpou1
p1084
L1083L
sVmao3
p1085
L1084L
sVzou1
p1086
L1085L
sVlin4
p1087
L1086L
sVquan3
p1088
L1087L
sVo2
p1089
L1088L
sVsong3
p1090
L1089L
sVle1
p1091
L1090L
sVrui3
p1092
L1091L
sVao3
p1093
L1092L
sVbian3
p1094
L1093L
sVzhuai1
p1095
L1094L
sVza1
p1096
L1095L
sVhao1
p1097
L1096L
sVwai3
p1098
L1097L
sVchun3
p1099
L1098L
sVnao2
p1100
L1099L
sVcui3
p1101
L1100L
sVmang3
p1102
L1101L
sVhang1
p1103
L1102L
sVlao4
p1104
L1103L
sVhou3
p1105
L1104L
sVbie1
p1106
L1105L
sVcuan1
p1107
L1106L
sVo1
p1108
L1107L
s(dp1109
L0L
g1
sL1L
g2
sL2L
g3
sL3L
g4
sL4L
g5
sL5L
g6
sL6L
g7
sL7L
g8
sL8L
g9
sL9L
g10
sL10L
g11
sL11L
g12
sL12L
g13
sL13L
g14
sL14L
g15
sL15L
g16
sL16L
g17
sL17L
g18
sL18L
g19
sL19L
g20
sL20L
g21
sL21L
g22
sL22L
g23
sL23L
g24
sL24L
g25
sL25L
g26
sL26L
g27
sL27L
g28
sL28L
g29
sL29L
g30
sL30L
g31
sL31L
g32
sL32L
g33
sL33L
g34
sL34L
g35
sL35L
g36
sL36L
g37
sL37L
g38
sL38L
g39
sL39L
g40
sL40L
g41
sL41L
g42
sL42L
g43
sL43L
g44
sL44L
g45
sL45L
g46
sL46L
g47
sL47L
g48
sL48L
g49
sL49L
g50
sL50L
g51
sL51L
g52
sL52L
g53
sL53L
g54
sL54L
g55
sL55L
g56
sL56L
g57
sL57L
g58
sL58L
g59
sL59L
g60
sL60L
g61
sL61L
g62
sL62L
g63
sL63L
g64
sL64L
g65
sL65L
g66
sL66L
g67
sL67L
g68
sL68L
g69
sL69L
g70
sL70L
g71
sL71L
g72
sL72L
g73
sL73L
g74
sL74L
g75
sL75L
g76
sL76L
g77
sL77L
g78
sL78L
g79
sL79L
g80
sL80L
g81
sL81L
g82
sL82L
g83
sL83L
g84
sL84L
g85
sL85L
g86
sL86L
g87
sL87L
g88
sL88L
g89
sL89L
g90
sL90L
g91
sL91L
g92
sL92L
g93
sL93L
g94
sL94L
g95
sL95L
g96
sL96L
g97
sL97L
g98
sL98L
g99
sL99L
g100
sL100L
g101
sL101L
g102
sL102L
g103
sL103L
g104
sL104L
g105
sL105L
g106
sL106L
g107
sL107L
g108
sL108L
g109
sL109L
g110
sL110L
g111
sL111L
g112
sL112L
g113
sL113L
g114
sL114L
g115
sL115L
g116
sL116L
g117
sL117L
g118
sL118L
g119
sL119L
g120
sL120L
g121
sL121L
g122
sL122L
g123
sL123L
g124
sL124L
g125
sL125L
g126
sL126L
g127
sL127L
g128
sL128L
g129
sL129L
g130
sL130L
g131
sL131L
g132
sL132L
g133
sL133L
g134
sL134L
g135
sL135L
g136
sL136L
g137
sL137L
g138
sL138L
g139
sL139L
g140
sL140L
g141
sL141L
g142
sL142L
g143
sL143L
g144
sL144L
g145
sL145L
g146
sL146L
g147
sL147L
g148
sL148L
g149
sL149L
g150
sL150L
g151
sL151L
g152
sL152L
g153
sL153L
g154
sL154L
g155
sL155L
g156
sL156L
g157
sL157L
g158
sL158L
g159
sL159L
g160
sL160L
g161
sL161L
g162
sL162L
g163
sL163L
g164
sL164L
g165
sL165L
g166
sL166L
g167
sL167L
g168
sL168L
g169
sL169L
g170
sL170L
g171
sL171L
g172
sL172L
g173
sL173L
g174
sL174L
g175
sL175L
g176
sL176L
g177
sL177L
g178
sL178L
g179
sL179L
g180
sL180L
g181
sL181L
g182
sL182L
g183
sL183L
g184
sL184L
g185
sL185L
g186
sL186L
g187
sL187L
g188
sL188L
g189
sL189L
g190
sL190L
g191
sL191L
g192
sL192L
g193
sL193L
g194
sL194L
g195
sL195L
g196
sL196L
g197
sL197L
g198
sL198L
g199
sL199L
g200
sL200L
g201
sL201L
g202
sL202L
g203
sL203L
g204
sL204L
g205
sL205L
g206
sL206L
g207
sL207L
g208
sL208L
g209
sL209L
g210
sL210L
g211
sL211L
g212
sL212L
g213
sL213L
g214
sL214L
g215
sL215L
g216
sL216L
g217
sL217L
g218
sL218L
g219
sL219L
g220
sL220L
g221
sL221L
g222
sL222L
g223
sL223L
g224
sL224L
g225
sL225L
g226
sL226L
g227
sL227L
g228
sL228L
g229
sL229L
g230
sL230L
g231
sL231L
g232
sL232L
g233
sL233L
g234
sL234L
g235
sL235L
g236
sL236L
g237
sL237L
g238
sL238L
g239
sL239L
g240
sL240L
g241
sL241L
g242
sL242L
g243
sL243L
g244
sL244L
g245
sL245L
g246
sL246L
g247
sL247L
g248
sL248L
g249
sL249L
g250
sL250L
g251
sL251L
g252
sL252L
g253
sL253L
g254
sL254L
g255
sL255L
g256
sL256L
g257
sL257L
g258
sL258L
g259
sL259L
g260
sL260L
g261
sL261L
g262
sL262L
g263
sL263L
g264
sL264L
g265
sL265L
g266
sL266L
g267
sL267L
g268
sL268L
g269
sL269L
g270
sL270L
g271
sL271L
g272
sL272L
g273
sL273L
g274
sL274L
g275
sL275L
g276
sL276L
g277
sL277L
g278
sL278L
g279
sL279L
g280
sL280L
g281
sL281L
g282
sL282L
g283
sL283L
g284
sL284L
g285
sL285L
g286
sL286L
g287
sL287L
g288
sL288L
g289
sL289L
g290
sL290L
g291
sL291L
g292
sL292L
g293
sL293L
g294
sL294L
g295
sL295L
g296
sL296L
g297
sL297L
g298
sL298L
g299
sL299L
g300
sL300L
g301
sL301L
g302
sL302L
g303
sL303L
g304
sL304L
g305
sL305L
g306
sL306L
g307
sL307L
g308
sL308L
g309
sL309L
g310
sL310L
g311
sL311L
g312
sL312L
g313
sL313L
g314
sL314L
g315
sL315L
g316
sL316L
g317
sL317L
g318
sL318L
g319
sL319L
g320
sL320L
g321
sL321L
g322
sL322L
g323
sL323L
g324
sL324L
g325
sL325L
g326
sL326L
g327
sL327L
g328
sL328L
g329
sL329L
g330
sL330L
g331
sL331L
g332
sL332L
g333
sL333L
g334
sL334L
g335
sL335L
g336
sL336L
g337
sL337L
g338
sL338L
g339
sL339L
g340
sL340L
g341
sL341L
g342
sL342L
g343
sL343L
g344
sL344L
g345
sL345L
g346
sL346L
g347
sL347L
g348
sL348L
g349
sL349L
g350
sL350L
g351
sL351L
g352
sL352L
g353
sL353L
g354
sL354L
g355
sL355L
g356
sL356L
g357
sL357L
g358
sL358L
g359
sL359L
g360
sL360L
g361
sL361L
g362
sL362L
g363
sL363L
g364
sL364L
g365
sL365L
g366
sL366L
g367
sL367L
g368
sL368L
g369
sL369L
g370
sL370L
g371
sL371L
g372
sL372L
g373
sL373L
g374
sL374L
g375
sL375L
g376
sL376L
g377
sL377L
g378
sL378L
g379
sL379L
g380
sL380L
g381
sL381L
g382
sL382L
g383
sL383L
g384
sL384L
g385
sL385L
g386
sL386L
g387
sL387L
g388
sL388L
g389
sL389L
g390
sL390L
g391
sL391L
g392
sL392L
g393
sL393L
g394
sL394L
g395
sL395L
g396
sL396L
g397
sL397L
g398
sL398L
g399
sL399L
g400
sL400L
g401
sL401L
g402
sL402L
g403
sL403L
g404
sL404L
g405
sL405L
g406
sL406L
g407
sL407L
g408
sL408L
g409
sL409L
g410
sL410L
g411
sL411L
g412
sL412L
g413
sL413L
g414
sL414L
g415
sL415L
g416
sL416L
g417
sL417L
g418
sL418L
g419
sL419L
g420
sL420L
g421
sL421L
g422
sL422L
g423
sL423L
g424
sL424L
g425
sL425L
g426
sL426L
g427
sL427L
g428
sL428L
g429
sL429L
g430
sL430L
g431
sL431L
g432
sL432L
g433
sL433L
g434
sL434L
g435
sL435L
g436
sL436L
g437
sL437L
g438
sL438L
g439
sL439L
g440
sL440L
g441
sL441L
g442
sL442L
g443
sL443L
g444
sL444L
g445
sL445L
g446
sL446L
g447
sL447L
g448
sL448L
g449
sL449L
g450
sL450L
g451
sL451L
g452
sL452L
g453
sL453L
g454
sL454L
g455
sL455L
g456
sL456L
g457
sL457L
g458
sL458L
g459
sL459L
g460
sL460L
g461
sL461L
g462
sL462L
g463
sL463L
g464
sL464L
g465
sL465L
g466
sL466L
g467
sL467L
g468
sL468L
g469
sL469L
g470
sL470L
g471
sL471L
g472
sL472L
g473
sL473L
g474
sL474L
g475
sL475L
g476
sL476L
g477
sL477L
g478
sL478L
g479
sL479L
g480
sL480L
g481
sL481L
g482
sL482L
g483
sL483L
g484
sL484L
g485
sL485L
g486
sL486L
g487
sL487L
g488
sL488L
g489
sL489L
g490
sL490L
g491
sL491L
g492
sL492L
g493
sL493L
g494
sL494L
g495
sL495L
g496
sL496L
g497
sL497L
g498
sL498L
g499
sL499L
g500
sL500L
g501
sL501L
g502
sL502L
g503
sL503L
g504
sL504L
g505
sL505L
g506
sL506L
g507
sL507L
g508
sL508L
g509
sL509L
g510
sL510L
g511
sL511L
g512
sL512L
g513
sL513L
g514
sL514L
g515
sL515L
g516
sL516L
g517
sL517L
g518
sL518L
g519
sL519L
g520
sL520L
g521
sL521L
g522
sL522L
g523
sL523L
g524
sL524L
g525
sL525L
g526
sL526L
g527
sL527L
g528
sL528L
g529
sL529L
g530
sL530L
g531
sL531L
g532
sL532L
g533
sL533L
g534
sL534L
g535
sL535L
g536
sL536L
g537
sL537L
g538
sL538L
g539
sL539L
g540
sL540L
g541
sL541L
g542
sL542L
g543
sL543L
g544
sL544L
g545
sL545L
g546
sL546L
g547
sL547L
g548
sL548L
g549
sL549L
g550
sL550L
g551
sL551L
g552
sL552L
g553
sL553L
g554
sL554L
g555
sL555L
g556
sL556L
g557
sL557L
g558
sL558L
g559
sL559L
g560
sL560L
g561
sL561L
g562
sL562L
g563
sL563L
g564
sL564L
g565
sL565L
g566
sL566L
g567
sL567L
g568
sL568L
g569
sL569L
g570
sL570L
g571
sL571L
g572
sL572L
g573
sL573L
g574
sL574L
g575
sL575L
g576
sL576L
g577
sL577L
g578
sL578L
g579
sL579L
g580
sL580L
g581
sL581L
g582
sL582L
g583
sL583L
g584
sL584L
g585
sL585L
g586
sL586L
g587
sL587L
g588
sL588L
g589
sL589L
g590
sL590L
g591
sL591L
g592
sL592L
g593
sL593L
g594
sL594L
g595
sL595L
g596
sL596L
g597
sL597L
g598
sL598L
g599
sL599L
g600
sL600L
g601
sL601L
g602
sL602L
g603
sL603L
g604
sL604L
g605
sL605L
g606
sL606L
g607
sL607L
g608
sL608L
g609
sL609L
g610
sL610L
g611
sL611L
g612
sL612L
g613
sL613L
g614
sL614L
g615
sL615L
g616
sL616L
g617
sL617L
g618
sL618L
g619
sL619L
g620
sL620L
g621
sL621L
g622
sL622L
g623
sL623L
g624
sL624L
g625
sL625L
g626
sL626L
g627
sL627L
g628
sL628L
g629
sL629L
g630
sL630L
g631
sL631L
g632
sL632L
g633
sL633L
g634
sL634L
g635
sL635L
g636
sL636L
g637
sL637L
g638
sL638L
g639
sL639L
g640
sL640L
g641
sL641L
g642
sL642L
g643
sL643L
g644
sL644L
g645
sL645L
g646
sL646L
g647
sL647L
g648
sL648L
g649
sL649L
g650
sL650L
g651
sL651L
g652
sL652L
g653
sL653L
g654
sL654L
g655
sL655L
g656
sL656L
g657
sL657L
g658
sL658L
g659
sL659L
g660
sL660L
g661
sL661L
g662
sL662L
g663
sL663L
g664
sL664L
g665
sL665L
g666
sL666L
g667
sL667L
g668
sL668L
g669
sL669L
g670
sL670L
g671
sL671L
g672
sL672L
g673
sL673L
g674
sL674L
g675
sL675L
g676
sL676L
g677
sL677L
g678
sL678L
g679
sL679L
g680
sL680L
g681
sL681L
g682
sL682L
g683
sL683L
g684
sL684L
g685
sL685L
g686
sL686L
g687
sL687L
g688
sL688L
g689
sL689L
g690
sL690L
g691
sL691L
g692
sL692L
g693
sL693L
g694
sL694L
g695
sL695L
g696
sL696L
g697
sL697L
g698
sL698L
g699
sL699L
g700
sL700L
g701
sL701L
g702
sL702L
g703
sL703L
g704
sL704L
g705
sL705L
g706
sL706L
g707
sL707L
g708
sL708L
g709
sL709L
g710
sL710L
g711
sL711L
g712
sL712L
g713
sL713L
g714
sL714L
g715
sL715L
g716
sL716L
g717
sL717L
g718
sL718L
g719
sL719L
g720
sL720L
g721
sL721L
g722
sL722L
g723
sL723L
g724
sL724L
g725
sL725L
g726
sL726L
g727
sL727L
g728
sL728L
g729
sL729L
g730
sL730L
g731
sL731L
g732
sL732L
g733
sL733L
g734
sL734L
g735
sL735L
g736
sL736L
g737
sL737L
g738
sL738L
g739
sL739L
g740
sL740L
g741
sL741L
g742
sL742L
g743
sL743L
g744
sL744L
g745
sL745L
g746
sL746L
g747
sL747L
g748
sL748L
g749
sL749L
g750
sL750L
g751
sL751L
g752
sL752L
g753
sL753L
g754
sL754L
g755
sL755L
g756
sL756L
g757
sL757L
g758
sL758L
g759
sL759L
g760
sL760L
g761
sL761L
g762
sL762L
g763
sL763L
g764
sL764L
g765
sL765L
g766
sL766L
g767
sL767L
g768
sL768L
g769
sL769L
g770
sL770L
g771
sL771L
g772
sL772L
g773
sL773L
g774
sL774L
g775
sL775L
g776
sL776L
g777
sL777L
g778
sL778L
g779
sL779L
g780
sL780L
g781
sL781L
g782
sL782L
g783
sL783L
g784
sL784L
g785
sL785L
g786
sL786L
g787
sL787L
g788
sL788L
g789
sL789L
g790
sL790L
g791
sL791L
g792
sL792L
g793
sL793L
g794
sL794L
g795
sL795L
g796
sL796L
g797
sL797L
g798
sL798L
g799
sL799L
g800
sL800L
g801
sL801L
g802
sL802L
g803
sL803L
g804
sL804L
g805
sL805L
g806
sL806L
g807
sL807L
g808
sL808L
g809
sL809L
g810
sL810L
g811
sL811L
g812
sL812L
g813
sL813L
g814
sL814L
g815
sL815L
g816
sL816L
g817
sL817L
g818
sL818L
g819
sL819L
g820
sL820L
g821
sL821L
g822
sL822L
g823
sL823L
g824
sL824L
g825
sL825L
g826
sL826L
g827
sL827L
g828
sL828L
g829
sL829L
g830
sL830L
g831
sL831L
g832
sL832L
g833
sL833L
g834
sL834L
g835
sL835L
g836
sL836L
g837
sL837L
g838
sL838L
g839
sL839L
g840
sL840L
g841
sL841L
g842
sL842L
g843
sL843L
g844
sL844L
g845
sL845L
g846
sL846L
g847
sL847L
g848
sL848L
g849
sL849L
g850
sL850L
g851
sL851L
g852
sL852L
g853
sL853L
g854
sL854L
g855
sL855L
g856
sL856L
g857
sL857L
g858
sL858L
g859
sL859L
g860
sL860L
g861
sL861L
g862
sL862L
g863
sL863L
g864
sL864L
g865
sL865L
g866
sL866L
g867
sL867L
g868
sL868L
g869
sL869L
g870
sL870L
g871
sL871L
g872
sL872L
g873
sL873L
g874
sL874L
g875
sL875L
g876
sL876L
g877
sL877L
g878
sL878L
g879
sL879L
g880
sL880L
g881
sL881L
g882
sL882L
g883
sL883L
g884
sL884L
g885
sL885L
g886
sL886L
g887
sL887L
g888
sL888L
g889
sL889L
g890
sL890L
g891
sL891L
g892
sL892L
g893
sL893L
g894
sL894L
g895
sL895L
g896
sL896L
g897
sL897L
g898
sL898L
g899
sL899L
g900
sL900L
g901
sL901L
g902
sL902L
g903
sL903L
g904
sL904L
g905
sL905L
g906
sL906L
g907
sL907L
g908
sL908L
g909
sL909L
g910
sL910L
g911
sL911L
g912
sL912L
g913
sL913L
g914
sL914L
g915
sL915L
g916
sL916L
g917
sL917L
g918
sL918L
g919
sL919L
g920
sL920L
g921
sL921L
g922
sL922L
g923
sL923L
g924
sL924L
g925
sL925L
g926
sL926L
g927
sL927L
g928
sL928L
g929
sL929L
g930
sL930L
g931
sL931L
g932
sL932L
g933
sL933L
g934
sL934L
g935
sL935L
g936
sL936L
g937
sL937L
g938
sL938L
g939
sL939L
g940
sL940L
g941
sL941L
g942
sL942L
g943
sL943L
g944
sL944L
g945
sL945L
g946
sL946L
g947
sL947L
g948
sL948L
g949
sL949L
g950
sL950L
g951
sL951L
g952
sL952L
g953
sL953L
g954
sL954L
g955
sL955L
g956
sL956L
g957
sL957L
g958
sL958L
g959
sL959L
g960
sL960L
g961
sL961L
g962
sL962L
g963
sL963L
g964
sL964L
g965
sL965L
g966
sL966L
g967
sL967L
g968
sL968L
g969
sL969L
g970
sL970L
g971
sL971L
g972
sL972L
g973
sL973L
g974
sL974L
g975
sL975L
g976
sL976L
g977
sL977L
g978
sL978L
g979
sL979L
g980
sL980L
g981
sL981L
g982
sL982L
g983
sL983L
g984
sL984L
g985
sL985L
g986
sL986L
g987
sL987L
g988
sL988L
g989
sL989L
g990
sL990L
g991
sL991L
g992
sL992L
g993
sL993L
g994
sL994L
g995
sL995L
g996
sL996L
g997
sL997L
g998
sL998L
g999
sL999L
g1000
sL1000L
g1001
sL1001L
g1002
sL1002L
g1003
sL1003L
g1004
sL1004L
g1005
sL1005L
g1006
sL1006L
g1007
sL1007L
g1008
sL1008L
g1009
sL1009L
g1010
sL1010L
g1011
sL1011L
g1012
sL1012L
g1013
sL1013L
g1014
sL1014L
g1015
sL1015L
g1016
sL1016L
g1017
sL1017L
g1018
sL1018L
g1019
sL1019L
g1020
sL1020L
g1021
sL1021L
g1022
sL1022L
g1023
sL1023L
g1024
sL1024L
g1025
sL1025L
g1026
sL1026L
g1027
sL1027L
g1028
sL1028L
g1029
sL1029L
g1030
sL1030L
g1031
sL1031L
g1032
sL1032L
g1033
sL1033L
g1034
sL1034L
g1035
sL1035L
g1036
sL1036L
g1037
sL1037L
g1038
sL1038L
g1039
sL1039L
g1040
sL1040L
g1041
sL1041L
g1042
sL1042L
g1043
sL1043L
g1044
sL1044L
g1045
sL1045L
g1046
sL1046L
g1047
sL1047L
g1048
sL1048L
g1049
sL1049L
g1050
sL1050L
g1051
sL1051L
g1052
sL1052L
g1053
sL1053L
g1054
sL1054L
g1055
sL1055L
g1056
sL1056L
g1057
sL1057L
g1058
sL1058L
g1059
sL1059L
g1060
sL1060L
g1061
sL1061L
g1062
sL1062L
g1063
sL1063L
g1064
sL1064L
g1065
sL1065L
g1066
sL1066L
g1067
sL1067L
g1068
sL1068L
g1069
sL1069L
g1070
sL1070L
g1071
sL1071L
g1072
sL1072L
g1073
sL1073L
g1074
sL1074L
g1075
sL1075L
g1076
sL1076L
g1077
sL1077L
g1078
sL1078L
g1079
sL1079L
g1080
sL1080L
g1081
sL1081L
g1082
sL1082L
g1083
sL1083L
g1084
sL1084L
g1085
sL1085L
g1086
sL1086L
g1087
sL1087L
g1088
sL1088L
g1089
sL1089L
g1090
sL1090L
g1091
sL1091L
g1092
sL1092L
g1093
sL1093L
g1094
sL1094L
g1095
sL1095L
g1096
sL1096L
g1097
sL1097L
g1098
sL1098L
g1099
sL1099L
g1100
sL1100L
g1101
sL1101L
g1102
sL1102L
g1103
sL1103L
g1104
sL1104L
g1105
sL1105L
g1106
sL1106L
g1107
sL1107L
g1108
s(dp1110
g1
L0L
sg2
L1L
sg3
L2L
sV\u7eff
p1111
L3L
sV\u662f
p1112
L4L
sV\u9633
p1113
L5L
sV\u6625
p1114
L6L
sV\u70df
p1115
L7L
sV\u666f
p1116
L8L
sV\u5927
p1117
L9L
sV\u5757
p1118
L10L
sV\u6587
p1119
L11L
sV\u7ae0
p1120
L12L
sV\u7684
p1121
L13L
sV\u5e95
p1122
L14L
sV\u8272
p1123
L15L
sV\u56db
p1124
L16L
sV\u6708
p1125
L17L
sV\u6797
p1126
L18L
sV\u5ce6
p1127
L19L
sV\u66f4
p1128
L20L
sV\u5f97
p1129
L21L
sV\u9c9c
p1130
L22L
sV\u6d3b
p1131
L23L
sV\u79c0
p1132
L24L
sV\u5a9a
p1133
L25L
sV\u8bd7
p1134
L26L
sV\u610f
p1135
L27L
sV\u76ce
p1136
L28L
sV\u7136
p1137
L29L
sV\u4ed6
p1138
L30L
sV\u4ec5
p1139
L31L
sV\u51ed
p1140
L32L
sV\u8170
p1141
L33L
sV\u90e8
p1142
L34L
sV\u529b
p1143
L35L
sV\u91cf
p1144
L36L
sV\u5728
p1145
L37L
sV\u6cf3
p1146
L38L
sV\u9053
p1147
L39L
sV\u4e0a
p1148
L40L
sV\u4e0b
p1149
L41L
sV\u7ffb
p1150
L42L
sV\u817e
p1151
L43L
sV\u86f9
p1152
L44L
sV\u52a8
p1153
L45L
sV\u86c7
p1154
L46L
sV\u884c
p1155
L47L
sV\u72b6
p1156
L48L
sV\u5982
p1157
L49L
sV\u6d77
p1158
L50L
sV\u8c5a
p1159
L51L
sV\u4e00
p1160
L52L
sV\u76f4
p1161
L53L
sV\u4ee5
p1162
L54L
sV\u5934
p1163
L55L
sV\u4f18
p1164
L56L
sV\u52bf
p1165
L57L
sV\u9886
p1166
L58L
sV\u5148
p1167
L59L
sV\u70ae
p1168
L60L
sV\u773c
p1169
L61L
sV\u6253
p1170
L62L
sV\u597d
p1171
L63L
sV\u4e86
p1172
L64L
sV\u70b8
p1173
L65L
sV\u836f
p1174
L66L
sV\u600e
p1175
L67L
sV\u4e48
p1176
L68L
sV\u88c5
p1177
L69L
sV\u5cb3
p1178
L70L
sV\u6b63
p1179
L71L
sV\u624d
p1180
L72L
sV\u54ac
p1181
L73L
sV\u7259
p1182
L74L
sV\u500f
p1183
L75L
sV\u5730
p1184
L76L
sV\u8131
p1185
L77L
sV\u53bb
p1186
L78L
sV\u8863
p1187
L79L
sV\u670d
p1188
L80L
sV\u5149
p1189
L81L
sV\u8180
p1190
L82L
sV\u5b50
p1191
L83L
sV\u51b2
p1192
L84L
sV\u8fdb
p1193
L85L
sV\u6c34
p1194
L86L
sV\u7a9c
p1195
L87L
sV\u6d1e
p1196
L88L
sV\u53ef
p1197
L89L
sV\u8c01
p1198
L90L
sV\u77e5
p1199
L91L
sV\u7eb9
p1200
L92L
sV\u5b8c
p1201
L93L
sV\u540e
p1202
L94L
sV\u5979
p1203
L95L
sV\u7167
p1204
L96L
sV\u955c
p1205
L97L
sV\u53ea
p1206
L98L
sV\u89c1
p1207
L99L
sV\u5de6
p1208
L100L
sV\u7751
p1209
L101L
sV\u7ebf
p1210
L102L
sV\u53c8
p1211
L103L
sV\u7c97
p1212
L104L
sV\u9ed1
p1213
L105L
sV\u4e0e
p1214
L106L
sV\u53f3
p1215
L107L
sV\u4fa7
p1216
L108L
sV\u660e
p1217
L109L
sV\u663e
p1218
L110L
sV\u4e0d
p1219
L111L
sV\u5bf9
p1220
L112L
sV\u79f0
p1221
L113L
sV\u4e03
p1222
L114L
sV\u5341
p1223
L115L
sV\u5e74
p1224
L116L
sV\u4ee3
p1225
L117L
sV\u672b
p1226
L118L
sV\u6211
p1227
L119L
sV\u5916
p1228
L120L
sV\u51fa
p1229
L121L
sV\u6c42
p1230
L122L
sV\u5b66
p1231
L123L
sV\u6bcd
p1232
L124L
sV\u4eb2
p1233
L125L
sV\u53ee
p1234
L126L
sV\u549b
p1235
L127L
sV\u5403
p1236
L128L
sV\u996d
p1237
L129L
sV\u8981
p1238
L130L
sV\u7ec6
p1239
L131L
sV\u56bc
p1240
L132L
sV\u6162
p1241
L133L
sV\u54bd
p1242
L134L
sV\u4e60
p1243
L135L
sV\u6df1
p1244
L136L
sV\u94bb
p1245
L137L
sV\u7814
p1246
L138L
sV\u95e8
p1247
L139L
sV\u88ab
p1248
L140L
sV\u60ca
p1249
L141L
sV\u5446
p1250
L142L
sV\u8fd9
p1251
L143L
sV\u6237
p1252
L144L
sV\u540d
p1253
L145L
sV\u53eb
p1254
L146L
sV\u5e9e
p1255
L147L
sV\u5409
p1256
L148L
sV\u8001
p1257
L149L
sV\u519c
p1258
L150L
sV\u6297
p1259
L151L
sV\u7f8e
p1260
L152L
sV\u63f4
p1261
L153L
sV\u671d
p1262
L154L
sV\u8d1f
p1263
L155L
sV\u4f24
p1264
L156L
sV\u56de
p1265
L157L
sV\u4e61
p1266
L158L
sV\u5175
p1267
L159L
sV\u59bb
p1268
L160L
sV\u957f
p1269
L161L
sV\u6709
p1270
L162L
sV\u75c5
p1271
L163L
sV\u5bb6
p1272
L164L
sV\u5f92
p1273
L165L
sV\u58c1
p1274
L166L
sV\u8d2b
p1275
L167L
sV\u6d17
p1276
L168L
sV\u8d70
p1277
L169L
sV\u6751
p1278
L170L
sV\u8fdc
p1279
L171L
sV\u8fd8
p1280
L172L
sV\u5f20
p1281
L173L
sV\u671b
p1282
L174L
sV\u90a3
p1283
L175L
sV\u4e2a
p1284
L176L
sV\u5b89
p1285
L177L
sV\u5b81
p1286
L178L
sV\u606c
p1287
L179L
sV\u9759
p1288
L180L
sV\u5c0f
p1289
L181L
sV\u9662
p1290
L182L
sV\u4f7f
p1291
L183L
sV\u7ec8
p1292
L184L
sV\u8eab
p1293
L185L
sV\u96be
p1294
L186L
sV\u5fd8
p1295
L187L
sV\u4e8c
p1296
L188L
sV\u65e5
p1297
L189L
sV\u4f4f
p1298
L190L
sV\u65b0
p1299
L191L
sV\u897f
p1300
L192L
sV\u7f57
p1301
L193L
sV\u78be
p1302
L194L
sV\u738b
p1303
L195L
sV\u5188
p1304
L196L
sV\u6731
p1305
L197L
sV\u81ea
p1306
L198L
sV\u6e05
p1307
L199L
sV\u95fb
p1308
L200L
sV\u8baf
p1309
L201L
sV\u7279
p1310
L202L
sV\u4ece
p1311
L203L
sV\u4e1c
p1312
L204L
sV\u8d76
p1313
L205L
sV\u6765
p1314
L206L
sV\u5e86
p1315
L207L
sV\u8d3a
p1316
L208L
sV\u5355
p1317
L209L
sV\u4f4d
p1318
L210L
sV\u7239
p1319
L211L
sV\u5f00
p1320
L212L
sV\u4ec0
p1321
L213L
sV\u6b21
p1322
L214L
sV\u987e
p1323
L215L
sV\u80fd
p1324
L216L
sV\u628a
p1325
L217L
sV\u5df1
p1326
L218L
sV\u5305
p1327
L219L
sV\u88b1
p1328
L220L
sV\u5f80
p1329
L221L
sV\u6821
p1330
L222L
sV\u7529
p1331
L223L
sV\u90fd
p1332
L224L
sV\u7528
p1333
L225L
sV\u8349
p1334
L226L
sV\u5e3d
p1335
L227L
sV\u6216
p1336
L228L
sV\u80f3
p1337
L229L
sV\u818a
p1338
L230L
sV\u8098
p1339
L231L
sV\u62a4
p1340
L232L
sV\u7740
p1341
L233L
sV\u7897
p1342
L234L
sV\u8d94
p1343
L235L
sV\u8d84
p1344
L236L
sV\u7a7f
p1345
L237L
sV\u8fc7
p1346
L238L
sV\u70c2
p1347
L239L
sV\u6ce5
p1348
L240L
sV\u5858
p1349
L241L
sV\u822c
p1350
L242L
sV\u575d
p1351
L243L
sV\u8dd1
p1352
L244L
sV\u5bbf
p1353
L245L
sV\u820d
p1354
L246L
sV\u9999
p1355
L247L
sV\u6e2f
p1356
L248L
sV\u6f14
p1357
L249L
sV\u827a
p1358
L250L
sV\u5708
p1359
L251L
sV\u6b22
p1360
L252L
sV\u8fce
p1361
L253L
sV\u6bdb
p1362
L254L
sV\u963f
p1363
L255L
sV\u654f
p1364
L256L
sV\u52a0
p1365
L257L
sV\u76df
p1366
L258L
sV\u65e0
p1367
L259L
sV\u53f0
p1368
L260L
sV\u534e
p1369
L261L
sV\u661f
p1370
L262L
sV\u4e9b
p1371
L263L
sV\u91cd
p1372
L264L
sV\u5531
p1373
L265L
sV\u9080
p1374
L266L
sV\u8bf7
p1375
L267L
sV\u573a
p1376
L268L
sV\u51e0
p1377
L269L
sV\u6392
p1378
L270L
sV\u538b
p1379
L271L
sV\u8f74
p1380
L272L
sV\u814c
p1381
L273L
sV\u62cc
p1382
L274L
sV\u9ec4
p1383
L275L
sV\u74dc
p1384
L276L
sV\u5c06
p1385
L277L
sV\u51c0
p1386
L278L
sV\u5207
p1387
L279L
sV\u7247
p1388
L280L
sV\u76d0
p1389
L281L
sV\u534a
p1390
L282L
sV\u65f6
p1391
L283L
sV\u98df
p1392
L284L
sV\u7cd6
p1393
L285L
sV\u918b
p1394
L286L
sV\u9ebb
p1395
L287L
sV\u6cb9
p1396
L288L
sV\u5373
p1397
L289L
sV\u7ed3
p1398
L290L
sV\u679c
p1399
L291L
sV\u5e03
p1400
L292L
sV\u74e6
p1401
L293L
sV\u4e07
p1402
L294L
sV\u672a
p1403
L295L
sV\u4f1e
p1404
L296L
sV\u800c
p1405
L297L
sV\u6454
p1406
L298L
sV\u6b7b
p1407
L299L
sV\u5361
p1408
L300L
sV\u7433
p1409
L301L
sV\u64cd
p1410
L302L
sV\u7eb5
p1411
L303L
sV\u964d
p1412
L304L
sV\u843d
p1413
L305L
sV\u624e
p1414
L306L
sV\u4f9d
p1415
L307L
sV\u91c7
p1416
L308L
sV\u592b
p1417
L309L
sV\u5973
p1418
L310L
sV\u9ad8
p1419
L311L
sV\u96c5
p1420
L312L
sV\u7537
p1421
L313L
sV\u4e5f
p1422
L314L
sV\u9896
p1423
L315L
sV\u8868
p1424
L316L
sV\u522b
p1425
L317L
sV\u81f4
p1426
L318L
sV\u804c
p1427
L319L
sV\u4e1a
p1428
L320L
sV\u9b45
p1429
L321L
sV\u9189
p1430
L322L
sV\u4eba
p1431
L323L
sV\u541b
p1432
L324L
sV\u591a
p1433
L325L
sV\u6b32
p1434
L326L
sV\u5219
p1435
L327L
sV\u8d2a
p1436
L328L
sV\u6155
p1437
L329L
sV\u5bcc
p1438
L330L
sV\u8d35
p1439
L331L
sV\u6789
p1440
L332L
sV\u901f
p1441
L333L
sV\u7978
p1442
L334L
sV\u5984
p1443
L335L
sV\u8d25
p1444
L336L
sV\u4e27
p1445
L337L
sV\u4eec
p1446
L338L
sV\u65e7
p1447
L339L
sV\u97f3
p1448
L340L
sV\u54cd
p1449
L341L
sV\u574f
p1450
L342L
sV\u5988
p1451
L343L
sV\u8ba9
p1452
L344L
sV\u4fee
p1453
L345L
sV\u8d8a
p1454
L346L
sV\u6210
p1455
L347L
sV\u6837
p1456
L348L
sV\u5c31
p1457
L349L
sV\u53cd
p1458
L350L
sV\u54b1
p1459
L351L
sV\u4f4e
p1460
L352L
sV\u8bf4
p1461
L353L
sV\u5565
p1462
L354L
sV\u505a
p1463
L355L
sV\u672c
p1464
L356L
sV\u6ca1
p1465
L357L
sV\u9a6c
p1466
L358L
sV\u54ea
p1467
L359L
sV\u513f
p1468
L360L
sV\u4e91
p1469
L361L
sV\u971e
p1470
L362L
sV\u4eca
p1471
L363L
sV\u5929
p1472
L364L
sV\u5566
p1473
L365L
sV\u6b64
p1474
L366L
sV\u4e3e
p1475
L367L
sV\u63aa
p1476
L368L
sV\u6e90
p1477
L369L
sV\u4e8e
p1478
L370L
sV\u676d
p1479
L371L
sV\u5dde
p1480
L372L
sV\u5a03
p1481
L373L
sV\u54c8
p1482
L374L
sV\u54c1
p1483
L375L
sV\u96c6
p1484
L376L
sV\u56e2
p1485
L377L
sV\u516c
p1486
L378L
sV\u53f8
p1487
L379L
sV\u603b
p1488
L380L
sV\u7ecf
p1489
L381L
sV\u7406
p1490
L382L
sV\u5b97
p1491
L383L
sV\u5e02
p1492
L384L
sV\u8d28
p1493
L385L
sV\u6089
p1494
L386L
sV\u91d1
p1495
L387L
sV\u9e21
p1496
L388L
sV\u5c71
p1497
L389L
sV\u5f04
p1498
L390L
sV\u5c27
p1499
L391L
sV\u9698
p1500
L392L
sV\u53e3
p1501
L393L
sV\u9547
p1502
L394L
sV\u7a77
p1503
L395L
sV\u5f53
p1504
L396L
sV\u73b0
p1505
L397L
sV\u5374
p1506
L398L
sV\u767e
p1507
L399L
sV\u7fc1
p1508
L400L
sV\u751a
p1509
L401L
sV\u81f3
p1510
L402L
sV\u5343
p1511
L403L
sV\u6653
p1512
L404L
sV\u4f5c
p1513
L405L
sV\u753b
p1514
L406L
sV\u5f81
p1515
L407L
sV\u795e
p1516
L408L
sV\u97f5
p1517
L409L
sV\u5176
p1518
L410L
sV\u98ce
p1519
L411L
sV\u533a
p1520
L412L
sV\u548c
p1521
L413L
sV\u8c13
p1522
L414L
sV\u4fd7
p1523
L415L
sV\u5171
p1524
L416L
sV\u8d4f
p1525
L417L
sV\u9274
p1526
L418L
sV\u7a76
p1527
L419L
sV\u51b3
p1528
L420L
sV\u5b9a
p1529
L421L
sV\u5ce1
p1530
L422L
sV\u60c5
p1531
L423L
sV\u4e13
p1532
L424L
sV\u680f
p1533
L425L
sV\u539f
p1534
L426L
sV\u4e09
p1535
L427L
sV\u675f
p1536
L428L
sV\u5ef6
p1537
L429L
sV\u4e94
p1538
L430L
sV\u544a
p1539
L431L
sV\u66fe
p1540
L432L
sV\u8db3
p1541
L433L
sV\u8ff9
p1542
L434L
sV\u904d
p1543
L435L
sV\u53ca
p1544
L436L
sV\u5185
p1545
L437L
sV\u4f46
p1546
L438L
sV\u59cb
p1547
L439L
sV\u8426
p1548
L440L
sV\u6000
p1549
L441L
sV\u751f
p1550
L442L
sV\u517b
p1551
L443L
sV\u4e2d
p1552
L444L
sV\u6545
p1553
L445L
sV\u571f
p1554
L446L
sV\u7531
p1555
L447L
sV\u4ea7
p1556
L448L
sV\u5987
p1557
L449L
sV\u65e9
p1558
L450L
sV\u533b
p1559
L451L
sV\u5458
p1560
L452L
sV\u80de
p1561
L453L
sV\u80ce
p1562
L454L
sV\u5a74
p1563
L455L
sV\u653e
p1564
L456L
sV\u80b2
p1565
L457L
sV\u7bb1
p1566
L458L
sV\u7cbe
p1567
L459L
sV\u5fc3
p1568
L460L
sV\u4fdd
p1569
L461L
sV\u8bc1
p1570
L462L
sV\u5b58
p1571
L463L
sV\u9648
p1572
L464L
sV\u540c
p1573
L465L
sV\u5fd7
p1574
L466L
sV\u5e72
p1575
L467L
sV\u8ba4
p1576
L468L
sV\u771f
p1577
L469L
sV\u52a1
p1578
L470L
sV\u901a
p1579
L471L
sV\u5411
p1580
L472L
sV\u6c83
p1581
L473L
sV\u4e3a
p1582
L474L
sV\u53f6
p1583
L475L
sV\u5229
p1584
L476L
sV\u94a6
p1585
L477L
sV\u547d
p1586
L478L
sV\u4ee4
p1587
L479L
sV\u65e2
p1588
L480L
sV\u8fdd
p1589
L481L
sV\u4fc4
p1590
L482L
sV\u8054
p1591
L483L
sV\u90a6
p1592
L484L
sV\u5baa
p1593
L485L
sV\u6cd5
p1594
L486L
sV\u5404
p1595
L487L
sV\u56fd
p1596
L488L
sV\u8389
p1597
L489L
sV\u9646
p1598
L490L
sV\u656c
p1599
L491L
sV\u9752
p1600
L492L
sV\u5b59
p1601
L493L
sV\u5f90
p1602
L494L
sV\u7b49
p1603
L495L
sV\u89c2
p1604
L496L
sV\u4f17
p1605
L497L
sV\u62ff
p1606
L498L
sV\u624b
p1607
L499L
sV\u66f2
p1608
L500L
sV\u76ee
p1609
L501L
sV\u53bf
p1610
L502L
sV\u7ea7
p1611
L503L
sV\u6d4e
p1612
L504L
sV\u89c4
p1613
L505L
sV\u6a21
p1614
L506L
sV\u53d1
p1615
L507L
sV\u5e94
p1616
L508L
sV\u5c55
p1617
L509L
sV\u8d38
p1618
L510L
sV\u7a81
p1619
L511L
sV\u7834
p1620
L512L
sV\u5e26
p1621
L513L
sV\u8d44
p1622
L514L
sV\u4fc3
p1623
L515L
sV\u76ae
p1624
L516L
sV\u7403
p1625
L517L
sV\u8335
p1626
L518L
sV\u6eda
p1627
L519L
sV\u53cc
p1628
L520L
sV\u65b9
p1629
L521L
sV\u5c4f
p1630
L522L
sV\u5e55
p1631
L523L
sV\u4e89
p1632
L524L
sV\u62a2
p1633
L525L
sV\u9760
p1634
L526L
sV\u4e9a
p1635
L527L
sV\u7ea2
p1636
L528L
sV\u659c
p1637
L529L
sV\u770b
p1638
L530L
sV\u7535
p1639
L531L
sV\u89c6
p1640
L532L
sV\u53e6
p1641
L533L
sV\u5047
p1642
L534L
sV\u8bbe
p1643
L535L
sV\u70e6
p1644
L536L
sV\u5173
p1645
L537L
sV\u7a7a
p1646
L538L
sV\u82b1
p1647
L539L
sV\u56ed
p1648
L540L
sV\u5c4b
p1649
L541L
sV\u53d8
p1650
L542L
sV\u9b3c
p1651
L543L
sV\u961f
p1652
L544L
sV\u97e9
p1653
L545L
sV\u6676
p1654
L546L
sV\u5a1c
p1655
L547L
sV\u71d5
p1656
L548L
sV\u5965
p1657
L549L
sV\u8fd0
p1658
L550L
sV\u7b2c
p1659
L551L
sV\u516d
p1660
L552L
sV\u640f
p1661
L553L
sV\u5de5
p1662
L554L
sV\u5382
p1663
L555L
sV\u623f
p1664
L556L
sV\u5efa
p1665
L557L
sV\u5168
p1666
L558L
sV\u914d
p1667
L559L
sV\u5907
p1668
L560L
sV\u6c61
p1669
L561L
sV\u7cfb
p1670
L562L
sV\u7edf
p1671
L563L
sV\u4f60
p1672
L564L
sV\u5230
p1673
L565L
sV\u542c
p1674
L566L
sV\u566a
p1675
L567L
sV\u58f0
p1676
L568L
sV\u65bc
p1677
L569L
sV\u8d43
p1678
L570L
sV\u4ff1
p1679
L571L
sV\u83b7
p1680
L572L
sV\u51b5
p1681
L573L
sV\u4ecd
p1682
L574L
sV\u5f3a
p1683
L575L
sV\u8f9e
p1684
L576L
sV\u593a
p1685
L577L
sV\u9887
p1686
L578L
sV\u611f
p1687
L579L
sV\u8da3
p1688
L580L
sV\u4f3c
p1689
L581L
sV\u4e4e
p1690
L582L
sV\u7edd
p1691
L583L
sV\u4f55
p1692
L584L
sV\u7269
p1693
L585L
sV\u60f3
p1694
L586L
sV\u6276
p1695
L587L
sV\u6c70
p1696
L588L
sV\u52a3
p1697
L589L
sV\u9996
p1698
L590L
sV\u89e3
p1699
L591L
sV\u95ee
p1700
L592L
sV\u9898
p1701
L593L
sV\u5224
p1702
L594L
sV\u5fc5
p1703
L595L
sV\u987b
p1704
L596L
sV\u8861
p1705
L597L
sV\u5c3a
p1706
L598L
sV\u7ed8
p1707
L599L
sV\u8bba
p1708
L600L
sV\u9f50
p1709
L601L
sV\u767d
p1710
L602L
sV\u77f3
p1711
L603L
sV\u5dcd
p1712
L604L
sV\u6606
p1713
L605L
sV\u4ed1
p1714
L606L
sV\u9644
p1715
L607L
sV\u5eb8
p1716
L608L
sV\u6c49
p1717
L609L
sV\u8fde
p1718
L610L
sV\u60a3
p1719
L611L
sV\u6e7f
p1720
L612L
sV\u6027
p1721
L613L
sV\u75bc
p1722
L614L
sV\u7c98
p1723
L615L
sV\u6f6e
p1724
L616L
sV\u52b3
p1725
L617L
sV\u7d2f
p1726
L618L
sV\u75db
p1727
L619L
sV\u5fcd
p1728
L620L
sV\u4e95
p1729
L621L
sV\u5f2f
p1730
L622L
sV\u5f13
p1731
L623L
sV\u80cc
p1732
L624L
sV\u6ee1
p1733
L625L
sV\u8fb9
p1734
L626L
sV\u5362
p1735
L627L
sV\u68ee
p1736
L628L
sV\u5821
p1737
L629L
sV\u77ed
p1738
L630L
sV\u554a
p1739
L631L
sV\u7231
p1740
L632L
sV\u5c14
p1741
L633L
sV\u5170
p1742
L634L
sV\u98a4
p1743
L635L
sV\u55d3
p1744
L636L
sV\u978b
p1745
L637L
sV\u6bb7
p1746
L638L
sV\u52e4
p1747
L639L
sV\u4fe1
p1748
L640L
sV\u5df2
p1749
L641L
sV\u6d88
p1750
L642L
sV\u6563
p1751
L643L
sV\u62b1
p1752
L644L
sV\u81c2
p1753
L645L
sV\u51b7
p1754
L646L
sV\u5c81
p1755
L647L
sV\u524d
p1756
L648L
sV\u4f59
p1757
L649L
sV\u5f55
p1758
L650L
sV\u53d6
p1759
L651L
sV\u7ee7
p1760
L652L
sV\u7eed
p1761
L653L
sV\u6982
p1762
L654L
sV\u5ff5
p1763
L655L
sV\u82f1
p1764
L656L
sV\u8bed
p1765
L657L
sV\u518c
p1766
L658L
sV\u674e
p1767
L659L
sV\u6734
p1768
L660L
sV\u5669
p1769
L661L
sV\u8017
p1770
L662L
sV\u6012
p1771
L663L
sV\u6124
p1772
L664L
sV\u586b
p1773
L665L
sV\u81ba
p1774
L666L
sV\u62cd
p1775
L667L
sV\u6848
p1776
L668L
sV\u8d77
p1777
L669L
sV\u65a5
p1778
L670L
sV\u6d3e
p1779
L671L
sV\u5351
p1780
L672L
sV\u9119
p1781
L673L
sV\u803b
p1782
L674L
sV\u652f
p1783
L675L
sV\u4e66
p1784
L676L
sV\u8bb0
p1785
L677L
sV\u560e
p1786
L678L
sV\u739b
p1787
L679L
sV\u96ea
p1788
L680L
sV\u707e
p1789
L681L
sV\u7a9d
p1790
L682L
sV\u79cd
p1791
L683L
sV\u7ef4
p1792
L684L
sV\u6301
p1793
L685L
sV\u5426
p1794
L686L
sV\u635f
p1795
L687L
sV\u5931
p1796
L688L
sV\u8d5e
p1797
L689L
sV\u5317
p1798
L690L
sV\u7ea6
p1799
L691L
sV\u6269
p1800
L692L
sV\u6b27
p1801
L693L
sV\u7ec4
p1802
L694L
sV\u7ec7
p1803
L695L
sV\u6240
p1804
L696L
sV\u57ce
p1805
L697L
sV\u4e50
p1806
L698L
sV\u9065
p1807
L699L
sV\u4e8b
p1808
L700L
sV\u5f85
p1809
L701L
sV\u72c2
p1810
L702L
sV\u559c
p1811
L703L
sV\u636e
p1812
L704L
sV\u5e7f
p1813
L705L
sV\u64ad
p1814
L706L
sV\u62a5
p1815
L707L
sV\u8258
p1816
L708L
sV\u6b66
p1817
L709L
sV\u5de1
p1818
L710L
sV\u903b
p1819
L711L
sV\u8247
p1820
L712L
sV\u508d
p1821
L713L
sV\u665a
p1822
L714L
sV\u9a76
p1823
L715L
sV\u6d45
p1824
L716L
sV\u6ee9
p1825
L717L
sV\u7ba1
p1826
L718L
sV\u5236
p1827
L719L
sV\u5f03
p1828
L720L
sV\u907f
p1829
L721L
sV\u5316
p1830
L722L
sV\u52aa
p1831
L723L
sV\u627c
p1832
L724L
sV\u989d
p1833
L725L
sV\u8d8b
p1834
L726L
sV\u5e45
p1835
L727L
sV\u5ea6
p1836
L728L
sV\u5347
p1837
L729L
sV\u5c40
p1838
L730L
sV\u9762
p1839
L731L
sV\u4e1d
p1840
L732L
sV\u7ef8
p1841
L733L
sV\u4e4b
p1842
L734L
sV\u8def
p1843
L735L
sV\u6c11
p1844
L736L
sV\u6b4c
p1845
L737L
sV\u5f88
p1846
L738L
sV\u56e0
p1847
L739L
sV\u7f6e
p1848
L740L
sV\u6a2a
p1849
L741L
sV\u8de8
p1850
L742L
sV\u6781
p1851
L743L
sV\u6b8a
p1852
L744L
sV\u7c4d
p1853
L745L
sV\u622a
p1854
L746L
sV\u65ec
p1855
L747L
sV\u8be5
p1856
L748L
sV\u62d6
p1857
L749L
sV\u6b20
p1858
L750L
sV\u6559
p1859
L751L
sV\u5e08
p1860
L752L
sV\u5143
p1861
L753L
sV\u653f
p1862
L754L
sV\u53d7
p1863
L755L
sV\u963b
p1864
L756L
sV\u5151
p1865
L757L
sV\u785d
p1866
L758L
sV\u80fa
p1867
L759L
sV\u7c7b
p1868
L760L
sV\u542b
p1869
L761L
sV\u6bd4
p1870
L762L
sV\u8f83
p1871
L763L
sV\u5c11
p1872
L764L
sV\u8089
p1873
L765L
sV\u83dc
p1874
L766L
sV\u718f
p1875
L767L
sV\u9c7c
p1876
L768L
sV\u9664
p1877
L769L
sV\u9009
p1878
L770L
sV\u53c2
p1879
L771L
sV\u9884
p1880
L772L
sV\u8d5b
p1881
L773L
sV\u5747
p1882
L774L
sV\u63a5
p1883
L775L
sV\u5165
p1884
L776L
sV\u5bfc
p1885
L777L
sV\u62e5
p1886
L778L
sV\u4e71
p1887
L779L
sV\u5435
p1888
L780L
sV\u9632
p1889
L781L
sV\u6b62
p1890
L782L
sV\u6fc0
p1891
L783L
sV\u77db
p1892
L784L
sV\u76fe
p1893
L785L
sV\u8885
p1894
L786L
sV\u5439
p1895
L787L
sV\u6c89
p1896
L788L
sV\u591c
p1897
L789L
sV\u7075
p1898
L790L
sV\u9b42
p1899
L791L
sV\u606f
p1900
L792L
sV\u7acb
p1901
L793L
sV\u8f70
p1902
L794L
sV\u670b
p1903
L795L
sV\u53cb
p1904
L796L
sV\u7eb7
p1905
L797L
sV\u529d
p1906
L798L
sV\u6811
p1907
L799L
sV\u69d0
p1908
L800L
sV\u601d
p1909
L801L
sV\u82cd
p1910
L802L
sV\u8747
p1911
L803L
sV\u8ddf
p1912
L804L
sV\u613f
p1913
L805L
sV\u868a
p1914
L806L
sV\u91cc
p1915
L807L
sV\u9635
p1916
L808L
sV\u5fd0
p1917
L809L
sV\u5fd1
p1918
L810L
sV\u8c61
p1919
L811L
sV\u8bbf
p1920
L812L
sV\u5237
p1921
L813L
sV\u67c4
p1922
L814L
sV\u6233
p1923
L815L
sV\u775b
p1924
L816L
sV\u70b9
p1925
L817L
sV\u9a8c
p1926
L818L
sV\u56fa
p1927
L819L
sV\u6c47
p1928
L820L
sV\u7387
p1929
L821L
sV\u987a
p1930
L822L
sV\u5dee
p1931
L823L
sV\u9700
p1932
L824L
sV\u629b
p1933
L825L
sV\u552e
p1934
L826L
sV\u5e01
p1935
L827L
sV\u8d2d
p1936
L828L
sV\u4e70
p1937
L829L
sV\u9006
p1938
L830L
sV\u6839
p1939
L831L
sV\u938f
p1940
L832L
sV\u96d5
p1941
L833L
sV\u5706
p1942
L834L
sV\u67f1
p1943
L835L
sV\u627f
p1944
L836L
sV\u6258
p1945
L837L
sV\u4e24
p1946
L838L
sV\u5c42
p1947
L839L
sV\u5f62
p1948
L840L
sV\u9876
p1949
L841L
sV\u4f20
p1950
L842L
sV\u6a90
p1951
L843L
sV\u4ead
p1952
L844L
sV\u7f38
p1953
L845L
sV\u8200
p1954
L846L
sV\u638f
p1955
L847L
sV\u725b
p1956
L848L
sV\u5348
p1957
L849L
sV\u9910
p1958
L850L
sV\u7f50
p1959
L851L
sV\u998d
p1960
L852L
sV\u5939
p1961
L853L
sV\u706b
p1962
L854L
sV\u70e4
p1963
L855L
sV\u67f3
p1964
L856L
sV\u590f
p1965
L857L
sV\u4e5d
p1966
L858L
sV\u4efb
p1967
L859L
sV\u4ea4
p1968
L860L
sV\u5e2d
p1969
L861L
sV\u79d8
p1970
L862L
sV\u798f
p1971
L863L
sV\u5e76
p1972
L864L
sV\u62c6
p1973
L865L
sV\u68a6
p1974
L866L
sV\u9f99
p1975
L867L
sV\u529e
p1976
L868L
sV\u5947
p1977
L869L
sV\u602a
p1978
L870L
sV\u865a
p1979
L871L
sV\u602f
p1980
L872L
sV\u7adf
p1981
L873L
sV\u62fc
p1982
L874L
sV\u6740
p1983
L875L
sV\u8dc3
p1984
L876L
sV\u8bd5
p1985
L877L
sV\u5883
p1986
L878L
sV\u8ddd
p1987
L879L
sV\u6700
p1988
L880L
sV\u7c73
p1989
L881L
sV\u8fd1
p1990
L882L
sV\u5f71
p1991
L883L
sV\u575b
p1992
L884L
sV\u4fa0
p1993
L885L
sV\u5077
p1994
L886L
sV\u76d7
p1995
L887L
sV\u8840
p1996
L888L
sV\u6dcb
p1997
L889L
sV\u6f13
p1998
L890L
sV\u51f6
p1999
L891L
sV\u67d0
p2000
L892L
sV\u5a31
p2001
L893L
sV\u5bb9
p2002
L894L
sV\u8bf8
p2003
L895L
sV\u5bb8
p2004
L896L
sV\u857e
p2005
L897L
sV\u9891
p2006
L898L
sV\u5206
p2007
L899L
sV\u683c
p2008
L900L
sV\u6d1b
p2009
L901L
sV\u5e0c
p2010
L902L
sV\u79d1
p2011
L903L
sV\u82e6
p2012
L904L
sV\u6218
p2013
L905L
sV\u95ea
p2014
L906L
sV\u4e4c
p2015
L907L
sV\u9001
p2016
L908L
sV\u65ad
p2017
L909L
sV\u5217
p2018
L910L
sV\u8f66
p2019
L911L
sV\u592a
p2020
L912L
sV\u6e56
p2021
L913L
sV\u5cb8
p2022
L914L
sV\u6de1
p2023
L915L
sV\u6d53
p2024
L916L
sV\u518d
p2025
L917L
sV\u7a00
p2026
L918L
sV\u5bb3
p2027
L919L
sV\u62ec
p2028
L920L
sV\u626b
p2029
L921L
sV\u5356
p2030
L922L
sV\u6deb
p2031
L923L
sV\u5ad6
p2032
L924L
sV\u5a3c
p2033
L925L
sV\u805a
p2034
L926L
sV\u8d4c
p2035
L927L
sV\u535a
p2036
L928L
sV\u5438
p2037
L929L
sV\u8d29
p2038
L930L
sV\u6bd2
p2039
L931L
sV\u62d0
p2040
L932L
sV\u7ae5
p2041
L933L
sV\u6d66
p2042
L934L
sV\u996e
p2043
L935L
sV\u9000
p2044
L936L
sV\u4f11
p2045
L937L
sV\u6c88
p2046
L938L
sV\u6cbb
p2047
L939L
sV\u5e73
p2048
L940L
sV\u677f
p2049
L941L
sV\u786c
p2050
L942L
sV\u6717
p2051
L943L
sV\u4f34
p2052
L944L
sV\u5367
p2053
L945L
sV\u5e8a
p2054
L946L
sV\u4fbf
p2055
L947L
sV\u9f84
p2056
L948L
sV\u5ac2
p2057
L949L
sV\u5308
p2058
L950L
sV\u5974
p2059
L951L
sV\u906d
p2060
L952L
sV\u51fb
p2061
L953L
sV\u6d51
p2062
L954L
sV\u90aa
p2063
L955L
sV\u5c60
p2064
L956L
sV\u79e6
p2065
L957L
sV\u4fd1
p2066
L958L
sV\u53f7
p2067
L959L
sV\u5751
p2068
L960L
sV\u519b
p2069
L961L
sV\u8005
p2070
L962L
sV\u63a2
p2071
L963L
sV\u8ba8
p2072
L964L
sV\u5e38
p2073
L965L
sV\u79e7
p2074
L966L
sV\u5f0f
p2075
L967L
sV\u6bcf
p2076
L968L
sV\u4ea9
p2077
L969L
sV\u82d7
p2078
L970L
sV\u683d
p2079
L971L
sV\u63d2
p2080
L972L
sV\u516b
p2081
L973L
sV\u7530
p2082
L974L
sV\u819c
p2083
L975L
sV\u79fb
p2084
L976L
sV\u9a7b
p2085
L977L
sV\u5b98
p2086
L978L
sV\u4f0a
p2087
L979L
sV\u83ab
p2088
L980L
sV\u5e93
p2089
L981L
sV\u8fbe
p2090
L982L
sV\u949f
p2091
L983L
sV\u5428
p2092
L984L
sV\u94ff
p2093
L985L
sV\u9535
p2094
L986L
sV\u8ffd
p2095
L987L
sV\u6316
p2096
L988L
sV\u67e5
p2097
L989L
sV\u5976
p2098
L990L
sV\u7ad9
p2099
L991L
sV\u724c
p2100
L992L
sV\u5957
p2101
L993L
sV\u73ed
p2102
L994L
sV\u9e64
p2103
L995L
sV\u697c
p2104
L996L
sV\u9152
p2105
L997L
sV\u8a89
p2106
L998L
sV\u5eb7
p2107
L999L
sV\u7199
p2108
L1000L
sV\u95f4
p2109
L1001L
sV\u660c
p2110
L1002L
sV\u85d5
p2111
L1003L
sV\u8d23
p2112
L1004L
sV\u4ea1
p2113
L1005L
sV\u5141
p2114
L1006L
sV\u8bb8
p2115
L1007L
sV\u6ba1
p2116
L1008L
sV\u4eea
p2117
L1009L
sV\u9986
p2118
L1010L
sV\u5b63
p2119
L1011L
sV\u5377
p2120
L1012L
sV\u5899
p2121
L1013L
sV\u76d8
p2122
L1014L
sV\u82cf
p2123
L1015L
sV\u9042
p2124
L1016L
sV\u968f
p2125
L1017L
sV\u5510
p2126
L1018L
sV\u542f
p2127
L1019L
sV\u865e
p2128
L1020L
sV\u5f6d
p2129
L1021L
sV\u6293
p2130
L1022L
sV\u59d4
p2131
L1023L
sV\u8302
p2132
L1024L
sV\u6da6
p2133
L1025L
sV\u67f4
p2134
L1026L
sV\u8000
p2135
L1027L
sV\u8c08
p2136
L1028L
sV\u6ce8
p2137
L1029L
sV\u57fa
p2138
L1030L
sV\u6307
p2139
L1031L
sV\u6807
p2140
L1032L
sV\u589e
p2141
L1033L
sV\u6fb3
p2142
L1034L
sV\u582a
p2143
L1035L
sV\u57f9
p2144
L1036L
sV\u62c9
p2145
L1037L
sV\u7687
p2146
L1038L
sV\u5267
p2147
L1039L
sV\u70ed
p2148
L1040L
sV\u70c8
p2149
L1041L
sV\u5145
p2150
L1042L
sV\u5370
p2151
L1043L
sV\u900f
p2152
L1044L
sV\u9732
p2153
L1045L
sV\u63a7
p2154
L1046L
sV\u514b
p2155
L1047L
sV\u7d27
p2156
L1048L
sV\u54e8
p2157
L1049L
sV\u73af
p2158
L1050L
sV\u5468
p2159
L1051L
sV\u56f4
p2160
L1052L
sV\u9634
p2161
L1053L
sV\u6016
p2162
L1054L
sV\u6015
p2163
L1055L
sV\u67aa
p2164
L1056L
sV\u54ed
p2165
L1057L
sV\u8425
p2166
L1058L
sV\u6614
p2167
L1059L
sV\u6c9f
p2168
L1060L
sV\u5192
p2169
L1061L
sV\u8f6e
p2170
L1062L
sV\u7fa4
p2171
L1063L
sV\u7fa1
p2172
L1064L
sV\u6d32
p2173
L1065L
sV\u52ff
p2174
L1066L
sV\u8c8c
p2175
L1067L
sV\u626c
p2176
L1068L
sV\u6bcb
p2177
L1069L
sV\u7559
p2178
L1070L
sV\u503c
p2179
L1071L
sV\u708a
p2180
L1072L
sV\u9972
p2181
L1073L
sV\u536b
p2182
L1074L
sV\u6b65
p2183
L1075L
sV\u5f1f
p2184
L1076L
sV\u5144
p2185
L1077L
sV\u4fe9
p2186
L1078L
sV\u6c60
p2187
L1079L
sV\u51d1
p2188
L1080L
sV\u80a1
p2189
L1081L
sV\u94c1
p2190
L1082L
sV\u503a
p2191
L1083L
sV\u6743
p2192
L1084L
sV\u6309
p2193
L1085L
sV\u644a
p2194
L1086L
sV\u51cf
p2195
L1087L
sV\u8d1d
p2196
L1088L
sV\u96f7
p2197
L1089L
sV\u6208
p2198
L1090L
sV\u6628
p2199
L1091L
sV\u7701
p2200
L1092L
sV\u666e
p2201
L1093L
sV\u8482
p2202
L1094L
sV\u57c3
p2203
L1095L
sV\u7ade
p2204
L1096L
sV\u4f1a
p2205
L1097L
sV\u575a
p2206
L1098L
sV\u96f6
p2207
L1099L
sV\u5218
p2208
L1100L
sV\u79ef
p2209
L1101L
sV\u677e
p2210
L1102L
sV\u64a4
p2211
L1103L
sV\u6539
p2212
L1104L
sV\u6c6a
p2213
L1105L
sV\u526f
p2214
L1106L
sV\u909d
p2215
L1107L
sV\u88d5
p2216
L1108L
sV\u6bb5
p2217
L1109L
sV\u78ca
p2218
L1110L
sV\u68cb
p2219
L1111L
sV\u6b3e
p2220
L1112L
sV\u9020
p2221
L1113L
sV\u4f53
p2222
L1114L
sV\u62bc
p2223
L1115L
sV\u5f39
p2224
L1116L
sV\u76d4
p2225
L1117L
sV\u6d25
p2226
L1118L
sV\u8106
p2227
L1119L
sV\u8702
p2228
L1120L
sV\u4e3b
p2229
L1121L
sV\u5a5a
p2230
L1122L
sV\u59fb
p2231
L1123L
sV\u8bec
p2232
L1124L
sV\u8511
p2233
L1125L
sV\u72ce
p2234
L1126L
sV\u5993
p2235
L1127L
sV\u663c
p2236
L1128L
sV\u6d74
p2237
L1129L
sV\u52fe
p2238
L1130L
sV\u5f15
p2239
L1131L
sV\u58eb
p2240
L1132L
sV\u79bd
p2241
L1133L
sV\u517d
p2242
L1134L
sV\u5357
p2243
L1135L
sV\u6c99
p2244
L1136L
sV\u6ce2
p2245
L1137L
sV\u6d9b
p2246
L1138L
sV\u60e6
p2247
L1139L
sV\u6c5f
p2248
L1140L
sV\u6dee
p2249
L1141L
sV\u5f7b
p2250
L1142L
sV\u7720
p2251
L1143L
sV\u5c45
p2252
L1144L
sV\u90b5
p2253
L1145L
sV\u6843
p2254
L1146L
sV\u5a46
p2255
L1147L
sV\u72e0
p2256
L1148L
sV\u6251
p2257
L1149L
sV\u68a2
p2258
L1150L
sV\u6768
p2259
L1151L
sV\u82bd
p2260
L1152L
sV\u679d
p2261
L1153L
sV\u5019
p2262
L1154L
sV\u5e84
p2263
L1155L
sV\u6666
p2264
L1156L
sV\u6697
p2265
L1157L
sV\u4e45
p2266
L1158L
sV\u5e9f
p2267
L1159L
sV\u9661
p2268
L1160L
sV\u7f18
p2269
L1161L
sV\u7a33
p2270
L1162L
sV\u94a2
p2271
L1163L
sV\u6e23
p2272
L1164L
sV\u77ff
p2273
L1165L
sV\u66f9
p2274
L1166L
sV\u796f
p2275
L1167L
sV\u68a7
p2276
L1168L
sV\u5954
p2277
L1169L
sV\u8c03
p2278
L1170L
sV\u6761
p2279
L1171L
sV\u4ef6
p2280
L1172L
sV\u6bb4
p2281
L1173L
sV\u8650
p2282
L1174L
sV\u5ab3
p2283
L1175L
sV\u5904
p2284
L1176L
sV\u7f5a
p2285
L1177L
sV\u7597
p2286
L1178L
sV\u8d39
p2287
L1179L
sV\u8bfa
p2288
L1180L
sV\u6885
p2289
L1181L
sV\u62c5
p2290
L1182L
sV\u65af
p2291
L1183L
sV\u5e9c
p2292
L1184L
sV\u8fa3
p2293
L1185L
sV\u6912
p2294
L1186L
sV\u80a5
p2295
L1187L
sV\u6d0b
p2296
L1188L
sV\u73a9
p2297
L1189L
sV\u6577
p2298
L1190L
sV\u8239
p2299
L1191L
sV\u6f02
p2300
L1192L
sV\u5507
p2301
L1193L
sV\u9e7f
p2302
L1194L
sV\u8e44
p2303
L1195L
sV\u50cf
p2304
L1196L
sV\u4ecb
p2305
L1197L
sV\u7ecd
p2306
L1198L
sV\u4f01
p2307
L1199L
sV\u7b79
p2308
L1200L
sV\u76f8
p2309
L1201L
sV\u8bc6
p2310
L1202L
sV\u82d1
p2311
L1203L
sV\u4f0d
p2312
L1204L
sV\u8340
p2313
L1205L
sV\u514d
p2314
L1206L
sV\u7ed9
p2315
L1207L
sV\u94b1
p2316
L1208L
sV\u5dfe
p2317
L1209L
sV\u64e6
p2318
L1210L
sV\u5634
p2319
L1211L
sV\u676f
p2320
L1212L
sV\u7eb8
p2321
L1213L
sV\u62ed
p2322
L1214L
sV\u8138
p2323
L1215L
sV\u6c57
p2324
L1216L
sV\u6cbe
p2325
L1217L
sV\u6c41
p2326
L1218L
sV\u7ee2
p2327
L1219L
sV\u6389
p2328
L1220L
sV\u5ef7
p2329
L1221L
sV\u9b44
p2330
L1222L
sV\u72ec
p2331
L1223L
sV\u5bc6
p2332
L1224L
sV\u8c0b
p2333
L1225L
sV\u5434
p2334
L1226L
sV\u6a3e
p2335
L1227L
sV\u72d9
p2336
L1228L
sV\u81e3
p2337
L1229L
sV\u5deb
p2338
L1230L
sV\u540a
p2339
L1231L
sV\u9888
p2340
L1232L
sV\u7f20
p2341
L1233L
sV\u54e5
p2342
L1234L
sV\u559d
p2343
L1235L
sV\u8d22
p2344
L1236L
sV\u8f6c
p2345
L1237L
sV\u96e8
p2346
L1238L
sV\u6668
p2347
L1239L
sV\u6cae
p2348
L1240L
sV\u51c6
p2349
L1241L
sV\u79bb
p2350
L1242L
sV\u722c
p2351
L1243L
sV\u6e38
p2352
L1244L
sV\u521a
p2353
L1245L
sV\u6d6a
p2354
L1246L
sV\u8058
p2355
L1247L
sV\u4f1f
p2356
L1248L
sV\u8042
p2357
L1249L
sV\u6280
p2358
L1250L
sV\u672f
p2359
L1251L
sV\u6f5c
p2360
L1252L
sV\u6548
p2361
L1253L
sV\u8bad
p2362
L1254L
sV\u5fd9
p2363
L1255L
sV\u6613
p2364
L1256L
sV\u5582
p2365
L1257L
sV\u5ba2
p2366
L1258L
sV\u56fe
p2367
L1259L
sV\u6355
p2368
L1260L
sV\u6349
p2369
L1261L
sV\u5feb
p2370
L1262L
sV\u71c3
p2371
L1263L
sV\u9a82
p2372
L1264L
sV\u6df7
p2373
L1265L
sV\u5e10
p2374
L1266L
sV\u52a9
p2375
L1267L
sV\u4e16
p2376
L1268L
sV\u754c
p2377
L1269L
sV\u85e4
p2378
L1270L
sV\u5c3c
p2379
L1271L
sV\u7981
p2380
L1272L
sV\u6599
p2381
L1273L
sV\u9645
p2382
L1274L
sV\u4ef7
p2383
L1275L
sV\u6da8
p2384
L1276L
sV\u673a
p2385
L1277L
sV\u6362
p2386
L1278L
sV\u76c8
p2387
L1279L
sV\u4e8f
p2388
L1280L
sV\u6ee6
p2389
L1281L
sV\u5415
p2390
L1282L
sV\u5768
p2391
L1283L
sV\u8d85
p2392
L1284L
sV\u529f
p2393
L1285L
sV\u8303
p2394
L1286L
sV\u7d22
p2395
L1287L
sV\u8bcd
p2396
L1288L
sV\u5e8f
p2397
L1289L
sV\u627e
p2398
L1290L
sV\u778e
p2399
L1291L
sV\u59be
p2400
L1292L
sV\u8bdd
p2401
L1293L
sV\u8857
p2402
L1294L
sV\u5f02
p2403
L1295L
sV\u89c9
p2404
L1296L
sV\u538c
p2405
L1297L
sV\u73bb
p2406
L1298L
sV\u7483
p2407
L1299L
sV\u5999
p2408
L1300L
sV\u5e7d
p2409
L1301L
sV\u9ed8
p2410
L1302L
sV\u667a
p2411
L1303L
sV\u7422
p2412
L1304L
sV\u78e8
p2413
L1305L
sV\u6367
p2414
L1306L
sV\u8179
p2415
L1307L
sV\u4e14
p2416
L1308L
sV\u8305
p2417
L1309L
sV\u585e
p2418
L1310L
sV\u987f
p2419
L1311L
sV\u609f
p2420
L1312L
sV\u7a83
p2421
L1313L
sV\u72af
p2422
L1314L
sV\u8e2a
p2423
L1315L
sV\u8bc0
p2424
L1316L
sV\u55b7
p2425
L1317L
sV\u6d82
p2426
L1318L
sV\u8fb0
p2427
L1319L
sV\u7f16
p2428
L1320L
sV\u793a
p2429
L1321L
sV\u63a8
p2430
L1322L
sV\u5a92
p2431
L1323L
sV\u5b57
p2432
L1324L
sV\u6750
p2433
L1325L
sV\u6e58
p2434
L1326L
sV\u5371
p2435
L1327L
sV\u77e3
p2436
L1328L
sV\u9075
p2437
L1329L
sV\u4e49
p2438
L1330L
sV\u786e
p2439
L1331L
sV\u7b56
p2440
L1332L
sV\u52c7
p2441
L1333L
sV\u731b
p2442
L1334L
sV\u98de
p2443
L1335L
sV\u53e4
p2444
L1336L
sV\u9882
p2445
L1337L
sV\u5212
p2446
L1338L
sV\u5546
p2447
L1339L
sV\u65c5
p2448
L1340L
sV\u7b51
p2449
L1341L
sV\u5a18
p2450
L1342L
sV\u59d1
p2451
L1343L
sV\u695a
p2452
L1344L
sV\u7b97
p2453
L1345L
sV\u5faa
p2454
L1346L
sV\u5b9e
p2455
L1347L
sV\u5b55
p2456
L1348L
sV\u966a
p2457
L1349L
sV\u840c
p2458
L1350L
sV\u51af
p2459
L1351L
sV\u997f
p2460
L1352L
sV\u6025
p2461
L1353L
sV\u65cb
p2462
L1354L
sV\u9014
p2463
L1355L
sV\u7f45
p2464
L1356L
sV\u9699
p2465
L1357L
sV\u598a
p2466
L1358L
sV\u5a20
p2467
L1359L
sV\u8ba1
p2468
L1360L
sV\u4f30
p2469
L1361L
sV\u6444
p2470
L1362L
sV\u6c0f
p2471
L1363L
sV\u5ba4
p2472
L1364L
sV\u6c14
p2473
L1365L
sV\u6e29
p2474
L1366L
sV\u4e59
p2475
L1367L
sV\u809d
p2476
L1368L
sV\u975e
p2477
L1369L
sV\u987d
p2478
L1370L
sV\u671f
p2479
L1371L
sV\u75ca
p2480
L1372L
sV\u6108
p2481
L1373L
sV\u578b
p2482
L1374L
sV\u708e
p2483
L1375L
sV\u764c
p2484
L1376L
sV\u604b
p2485
L1377L
sV\u8bb2
p2486
L1378L
sV\u4efd
p2487
L1379L
sV\u523b
p2488
L1380L
sV\u7ff0
p2489
L1381L
sV\u6635
p2490
L1382L
sV\u504f
p2491
L1383L
sV\u8328
p2492
L1384L
sV\u7f3a
p2493
L1385L
sV\u867d
p2494
L1386L
sV\u7cd9
p2495
L1387L
sV\u5c04
p2496
L1388L
sV\u7bad
p2497
L1389L
sV\u67d4
p2498
L1390L
sV\u7fbd
p2499
L1391L
sV\u6325
p2500
L1392L
sV\u8f7d
p2501
L1393L
sV\u6db2
p2502
L1394L
sV\u9057
p2503
L1395L
sV\u590d
p2504
L1396L
sV\u6574
p2505
L1397L
sV\u7eb3
p2506
L1398L
sV\u4e25
p2507
L1399L
sV\u969c
p2508
L1400L
sV\u788d
p2509
L1401L
sV\u8111
p2510
L1402L
sV\u7a84
p2511
L1403L
sV\u6655
p2512
L1404L
sV\u660f
p2513
L1405L
sV\u8f6f
p2514
L1406L
sV\u7a8d
p2515
L1407L
sV\u7eaf
p2516
L1408L
sV\u5f6c
p2517
L1409L
sV\u6562
p2518
L1410L
sV\u849c
p2519
L1411L
sV\u6ede
p2520
L1412L
sV\u9500
p2521
L1413L
sV\u65a4
p2522
L1414L
sV\u6b8b
p2523
L1415L
sV\u4f5b
p2524
L1416L
sV\u6620
p2525
L1417L
sV\u5ba1
p2526
L1418L
sV\u6279
p2527
L1419L
sV\u8003
p2528
L1420L
sV\u7ee9
p2529
L1421L
sV\u6536
p2530
L1422L
sV\u6302
p2531
L1423L
sV\u94a9
p2532
L1424L
sV\u80f6
p2533
L1425L
sV\u76d2
p2534
L1426L
sV\u4f9b
p2535
L1427L
sV\u62e9
p2536
L1428L
sV\u4f26
p2537
L1429L
sV\u5384
p2538
L1430L
sV\u9c81
p2539
L1431L
sV\u745e
p2540
L1432L
sV\u4eac
p2541
L1433L
sV\u7384
p2542
L1434L
sV\u7329
p2543
L1435L
sV\u5410
p2544
L1436L
sV\u553e
p2545
L1437L
sV\u6cab
p2546
L1438L
sV\u5174
p2547
L1439L
sV\u5f52
p2548
L1440L
sV\u67ec
p2549
L1441L
sV\u8c0a
p2550
L1442L
sV\u8f88
p2551
L1443L
sV\u965b
p2552
L1444L
sV\u7f14
p2553
L1445L
sV\u4e54
p2554
L1446L
sV\u819d
p2555
L1447L
sV\u9510
p2556
L1448L
sV\u8eba
p2557
L1449L
sV\u6d01
p2558
L1450L
sV\u7c89
p2559
L1451L
sV\u5c1a
p2560
L1452L
sV\u811a
p2561
L1453L
sV\u9a9a
p2562
L1454L
sV\u6270
p2563
L1455L
sV\u7cdc
p2564
L1456L
sV\u8715
p2565
L1457L
sV\u4e2b
p2566
L1458L
sV\u8d32
p2567
L1459L
sV\u80c3
p2568
L1460L
sV\u8109
p2569
L1461L
sV\u7624
p2570
L1462L
sV\u88c2
p2571
L1463L
sV\u4e34
p2572
L1464L
sV\u5a01
p2573
L1465L
sV\u80c1
p2574
L1466L
sV\u56f0
p2575
L1467L
sV\u7d20
p2576
L1468L
sV\u8d27
p2577
L1469L
sV\u5360
p2578
L1470L
sV\u6619
p2579
L1471L
sV\u53d4
p2580
L1472L
sV\u9769
p2581
L1473L
sV\u6c38
p2582
L1474L
sV\u8d1e
p2583
L1475L
sV\u7533
p2584
L1476L
sV\u6267
p2585
L1477L
sV\u7956
p2586
L1478L
sV\u5802
p2587
L1479L
sV\u5385
p2588
L1480L
sV\u7b20
p2589
L1481L
sV\u61e6
p2590
L1482L
sV\u5f31
p2591
L1483L
sV\u4fb5
p2592
L1484L
sV\u8680
p2593
L1485L
sV\u6d31
p2594
L1486L
sV\u7f51
p2595
L1487L
sV\u8036
p2596
L1488L
sV\u7a23
p2597
L1489L
sV\u8bde
p2598
L1490L
sV\u69fd
p2599
L1491L
sV\u65c1
p2600
L1492L
sV\u806a
p2601
L1493L
sV\u8bef
p2602
L1494L
sV\u5e87
p2603
L1495L
sV\u7f6a
p2604
L1496L
sV\u8d3c
p2605
L1497L
sV\u4fa8
p2606
L1498L
sV\u6069
p2607
L1499L
sV\u78b0
p2608
L1500L
sV\u5c24
p2609
L1501L
sV\u5408
p2610
L1502L
sV\u878d
p2611
L1503L
sV\u6742
p2612
L1504L
sV\u810f
p2613
L1505L
sV\u520a
p2614
L1506L
sV\u767b
p2615
L1507L
sV\u7bc7
p2616
L1508L
sV\u7554
p2617
L1509L
sV\u5750
p2618
L1510L
sV\u6b23
p2619
L1511L
sV\u59ff
p2620
L1512L
sV\u8a00
p2621
L1513L
sV\u7efc
p2622
L1514L
sV\u5bd3
p2623
L1515L
sV\u9192
p2624
L1516L
sV\u4e22
p2625
L1517L
sV\u4e32
p2626
L1518L
sV\u901d
p2627
L1519L
sV\u5473
p2628
L1520L
sV\u80e1
p2629
L1521L
sV\u83c7
p2630
L1522L
sV\u9676
p2631
L1523L
sV\u9171
p2632
L1524L
sV\u827e
p2633
L1525L
sV\u793e
p2634
L1526L
sV\u759f
p2635
L1527L
sV\u75be
p2636
L1528L
sV\u8fc5
p2637
L1529L
sV\u8513
p2638
L1530L
sV\u84b8
p2639
L1531L
sV\u8543
p2640
L1532L
sV\u8304
p2641
L1533L
sV\u7092
p2642
L1534L
sV\u86cb
p2643
L1535L
sV\u69a8
p2644
L1536L
sV\u8db4
p2645
L1537L
sV\u9ece
p2646
L1538L
sV\u8d21
p2647
L1539L
sV\u5cf0
p2648
L1540L
sV\u5bdf
p2649
L1541L
sV\u9e70
p2650
L1542L
sV\u96cf
p2651
L1543L
sV\u62e7
p2652
L1544L
sV\u5851
p2653
L1545L
sV\u76d6
p2654
L1546L
sV\u5509
p2655
L1547L
sV\u8721
p2656
L1548L
sV\u5c01
p2657
L1549L
sV\u6728
p2658
L1550L
sV\u9677
p2659
L1551L
sV\u74f6
p2660
L1552L
sV\u7aa6
p2661
L1553L
sV\u706f
p2662
L1554L
sV\u8d50
p2663
L1555L
sV\u80dc
p2664
L1556L
sV\u7efe
p2665
L1557L
sV\u5b83
p2666
L1558L
sV\u846c
p2667
L1559L
sV\u57cb
p2668
L1560L
sV\u5893
p2669
L1561L
sV\u675c
p2670
L1562L
sV\u7389
p2671
L1563L
sV\u6770
p2672
L1564L
sV\u5378
p2673
L1565L
sV\u9003
p2674
L1566L
sV\u5bd2
p2675
L1567L
sV\u5c3d
p2676
L1568L
sV\u9ed4
p2677
L1569L
sV\u88d9
p2678
L1570L
sV\u98d8
p2679
L1571L
sV\u63d0
p2680
L1572L
sV\u7bee
p2681
L1573L
sV\u8fdf
p2682
L1574L
sV\u6e10
p2683
L1575L
sV\u6eb6
p2684
L1576L
sV\u4eae
p2685
L1577L
sV\u8f89
p2686
L1578L
sV\u8881
p2687
L1579L
sV\u59b9
p2688
L1580L
sV\u8282
p2689
L1581L
sV\u780c
p2690
L1582L
sV\u5395
p2691
L1583L
sV\u584c
p2692
L1584L
sV\u5f84
p2693
L1585L
sV\u6865
p2694
L1586L
sV\u6beb
p2695
L1587L
sV\u7c92
p2696
L1588L
sV\u6d41
p2697
L1589L
sV\u51c9
p2698
L1590L
sV\u5429
p2699
L1591L
sV\u5490
p2700
L1592L
sV\u9614
p2701
L1593L
sV\u5fb7
p2702
L1594L
sV\u5668
p2703
L1595L
sV\u75c7
p2704
L1596L
sV\u535c
p2705
L1597L
sV\u51e1
p2706
L1598L
sV\u63cf
p2707
L1599L
sV\u6ee4
p2708
L1600L
sV\u77fd
p2709
L1601L
sV\u6495
p2710
L1602L
sV\u64a9
p2711
L1603L
sV\u96fe
p2712
L1604L
sV\u5e54
p2713
L1605L
sV\u7476
p2714
L1606L
sV\u4fcf
p2715
L1607L
sV\u5c5e
p2716
L1608L
sV\u7a0e
p2717
L1609L
sV\u7f34
p2718
L1610L
sV\u53e5
p2719
L1611L
sV\u6c2f
p2720
L1612L
sV\u94a0
p2721
L1613L
sV\u9541
p2722
L1614L
sV\u6784
p2723
L1615L
sV\u8499
p2724
L1616L
sV\u91ce
p2725
L1617L
sV\u8154
p2726
L1618L
sV\u6566
p2727
L1619L
sV\u75af
p2728
L1620L
sV\u7a97
p2729
L1621L
sV\u6551
p2730
L1622L
sV\u6096
p2731
L1623L
sV\u6b6a
p2732
L1624L
sV\u4f38
p2733
L1625L
sV\u98a0
p2734
L1626L
sV\u5012
p2735
L1627L
sV\u9e2d
p2736
L1628L
sV\u684c
p2737
L1629L
sV\u5ba0
p2738
L1630L
sV\u822a
p2739
L1631L
sV\u706d
p2740
L1632L
sV\u8c31
p2741
L1633L
sV\u8bf1
p2742
L1634L
sV\u866b
p2743
L1635L
sV\u6556
p2744
L1636L
sV\u8428
p2745
L1637L
sV\u67d3
p2746
L1638L
sV\u95f9
p2747
L1639L
sV\u9a71
p2748
L1640L
sV\u5bbe
p2749
L1641L
sV\u6fa1
p2750
L1642L
sV\u76c6
p2751
L1643L
sV\u4eab
p2752
L1644L
sV\u6851
p2753
L1645L
sV\u6c7d
p2754
L1646L
sV\u65e6
p2755
L1647L
sV\u9047
p2756
L1648L
sV\u730e
p2757
L1649L
sV\u94b3
p2758
L1650L
sV\u5c3e
p2759
L1651L
sV\u5df4
p2760
L1652L
sV\u523a
p2761
L1653L
sV\u9488
p2762
L1654L
sV\u7574
p2763
L1655L
sV\u4e3d
p2764
L1656L
sV\u8c46
p2765
L1657L
sV\u8150
p2766
L1658L
sV\u5c1d
p2767
L1659L
sV\u5ae9
p2768
L1660L
sV\u626d
p2769
L1661L
sV\u5b64
p2770
L1662L
sV\u59a9
p2771
L1663L
sV\u51c4
p2772
L1664L
sV\u8bfe
p2773
L1665L
sV\u5440
p2774
L1666L
sV\u9650
p2775
L1667L
sV\u8f7b
p2776
L1668L
sV\u88d8
p2777
L1669L
sV\u9e26
p2778
L1670L
sV\u60ac
p2779
L1671L
sV\u5eca
p2780
L1672L
sV\u5ead
p2781
L1673L
sV\u5a11
p2782
L1674L
sV\u638c
p2783
L1675L
sV\u63e1
p2784
L1676L
sV\u591f
p2785
L1677L
sV\u7164
p2786
L1678L
sV\u7206
p2787
L1679L
sV\u8d64
p2788
L1680L
sV\u6c27
p2789
L1681L
sV\u989c
p2790
L1682L
sV\u5448
p2791
L1683L
sV\u7070
p2792
L1684L
sV\u6447
p2793
L1685L
sV\u6643
p2794
L1686L
sV\u7c38
p2795
L1687L
sV\u9e23
p2796
L1688L
sV\u65f7
p2797
L1689L
sV\u522e
p2798
L1690L
sV\u5417
p2799
L1691L
sV\u7edc
p2800
L1692L
sV\u7130
p2801
L1693L
sV\u7eb2
p2802
L1694L
sV\u547c
p2803
L1695L
sV\u5401
p2804
L1696L
sV\u9e33
p2805
L1697L
sV\u9e2f
p2806
L1698L
sV\u79cb
p2807
L1699L
sV\u51ac
p2808
L1700L
sV\u821f
p2809
L1701L
sV\u7434
p2810
L1702L
sV\u5d07
p2811
L1703L
sV\u5e1d
p2812
L1704L
sV\u501a
p2813
L1705L
sV\u9a7e
p2814
L1706L
sV\u6d95
p2815
L1707L
sV\u9526
p2816
L1708L
sV\u74ef
p2817
L1709L
sV\u7eaa
p2818
L1710L
sV\u58d5
p2819
L1711L
sV\u5811
p2820
L1712L
sV\u50f5
p2821
L1713L
sV\u8352
p2822
L1714L
sV\u5cad
p2823
L1715L
sV\u707c
p2824
L1716L
sV\u717d
p2825
L1717L
sV\u7f8a
p2826
L1718L
sV\u5353
p2827
L1719L
sV\u96cd
p2828
L1720L
sV\u62bd
p2829
L1721L
sV\u84c4
p2830
L1722L
sV\u62d4
p2831
L1723L
sV\u85cf
p2832
L1724L
sV\u68c9
p2833
L1725L
sV\u7c07
p2834
L1726L
sV\u7ed2
p2835
L1727L
sV\u7f69
p2836
L1728L
sV\u6795
p2837
L1729L
sV\u9aa8
p2838
L1730L
sV\u5386
p2839
L1731L
sV\u6597
p2840
L1732L
sV\u96c4
p2841
L1733L
sV\u5609
p2842
L1734L
sV\u8bae
p2843
L1735L
sV\u7968
p2844
L1736L
sV\u8fea
p2845
L1737L
sV\u5e78
p2846
L1738L
sV\u8bda
p2847
L1739L
sV\u72b9
p2848
L1740L
sV\u5fc6
p2849
L1741L
sV\u7545
p2850
L1742L
sV\u751c
p2851
L1743L
sV\u541e
p2852
L1744L
sV\u9690
p2853
L1745L
sV\u7855
p2854
L1746L
sV\u7f15
p2855
L1747L
sV\u5ae1
p2856
L1748L
sV\u59e8
p2857
L1749L
sV\u73cd
p2858
L1750L
sV\u59d0
p2859
L1751L
sV\u6c1f
p2860
L1752L
sV\u78b3
p2861
L1753L
sV\u8783
p2862
L1754L
sV\u87f9
p2863
L1755L
sV\u87af
p2864
L1756L
sV\u7248
p2865
L1757L
sV\u8bc4
p2866
L1758L
sV\u821e
p2867
L1759L
sV\u82ad
p2868
L1760L
sV\u8695
p2869
L1761L
sV\u6cb3
p2870
L1762L
sV\u9f0e
p2871
L1763L
sV\u6cb8
p2872
L1764L
sV\u5f69
p2873
L1765L
sV\u65d7
p2874
L1766L
sV\u788c
p2875
L1767L
sV\u60a8
p2876
L1768L
sV\u5ba3
p2877
L1769L
sV\u63ed
p2878
L1770L
sV\u6295
p2879
L1771L
sV\u4ebf
p2880
L1772L
sV\u719f
p2881
L1773L
sV\u625b
p2882
L1774L
sV\u7aef
p2883
L1775L
sV\u7275
p2884
L1776L
sV\u888b
p2885
L1777L
sV\u6652
p2886
L1778L
sV\u5773
p2887
L1779L
sV\u70e7
p2888
L1780L
sV\u8c37
p2889
L1781L
sV\u5f25
p2890
L1782L
sV\u6869
p2891
L1783L
sV\u4e08
p2892
L1784L
sV\u7a3b
p2893
L1785L
sV\u7801
p2894
L1786L
sV\u7a0b
p2895
L1787L
sV\u9f88
p2896
L1788L
sV\u9f7f
p2897
L1789L
sV\u515a
p2898
L1790L
sV\u6cfd
p2899
L1791L
sV\u6838
p2900
L1792L
sV\u592e
p2901
L1793L
sV\u521b
p2902
L1794L
sV\u7c2a
p2903
L1795L
sV\u6234
p2904
L1796L
sV\u94f6
p2905
L1797L
sV\u7261
p2906
L1798L
sV\u4e39
p2907
L1799L
sV\u828d
p2908
L1800L
sV\u500d
p2909
L1801L
sV\u9601
p2910
L1802L
sV\u5b9b
p2911
L1803L
sV\u82e5
p2912
L1804L
sV\u4ed9
p2913
L1805L
sV\u5acc
p2914
L1806L
sV\u7591
p2915
L1807L
sV\u8df3
p2916
L1808L
sV\u6298
p2917
L1809L
sV\u64d2
p2918
L1810L
sV\u5b65
p2919
L1811L
sV\u6076
p2920
L1812L
sV\u4ea6
p2921
L1813L
sV\u5be1
p2922
L1814L
sV\u9177
p2923
L1815L
sV\u51dd
p2924
L1816L
sV\u6167
p2925
L1817L
sV\u60ef
p2926
L1818L
sV\u53f2
p2927
L1819L
sV\u6bc5
p2928
L1820L
sV\u62db
p2929
L1821L
sV\u4e88
p2930
L1822L
sV\u7b54
p2931
L1823L
sV\u82b3
p2932
L1824L
sV\u9e3f
p2933
L1825L
sV\u5bff
p2934
L1826L
sV\u7b11
p2935
L1827L
sV\u4fac
p2936
L1828L
sV\u6f58
p2937
L1829L
sV\u6a35
p2938
L1830L
sV\u534f
p2939
L1831L
sV\u90ca
p2940
L1832L
sV\u9010
p2941
L1833L
sV\u755c
p2942
L1834L
sV\u65cf
p2943
L1835L
sV\u7267
p2944
L1836L
sV\u5177
p2945
L1837L
sV\u65f1
p2946
L1838L
sV\u80af
p2947
L1839L
sV\u6328
p2948
L1840L
sV\u4fa6
p2949
L1841L
sV\u6bc1
p2950
L1842L
sV\u9002
p2951
L1843L
sV\u5584
p2952
L1844L
sV\u8d74
p2953
L1845L
sV\u8f93
p2954
L1846L
sV\u786b
p2955
L1847L
sV\u5bfa
p2956
L1848L
sV\u5e99
p2957
L1849L
sV\u9519
p2958
L1850L
sV\u63a9
p2959
L1851L
sV\u90c1
p2960
L1852L
sV\u53e0
p2961
L1853L
sV\u5d82
p2962
L1854L
sV\u58ee
p2963
L1855L
sV\u75f4
p2964
L1856L
sV\u7656
p2965
L1857L
sV\u6109
p2966
L1858L
sV\u6853
p2967
L1859L
sV\u6d59
p2968
L1860L
sV\u6de6
p2969
L1861L
sV\u5ffb
p2970
L1862L
sV\u8d24
p2971
L1863L
sV\u5f17
p2972
L1864L
sV\u82ae
p2973
L1865L
sV\u6d6e
p2974
L1866L
sV\u94fa
p2975
L1867L
sV\u5ea7
p2976
L1868L
sV\u7a91
p2977
L1869L
sV\u564c
p2978
L1870L
sV\u94a5
p2979
L1871L
sV\u5319
p2980
L1872L
sV\u8e22
p2981
L1873L
sV\u8e39
p2982
L1874L
sV\u649e
p2983
L1875L
sV\u63c6
p2984
L1876L
sV\u8230
p2985
L1877L
sV\u90d1
p2986
L1878L
sV\u4ed3
p2987
L1879L
sV\u62e8
p2988
L1880L
sV\u8feb
p2989
L1881L
sV\u5bab
p2990
L1882L
sV\u5c97
p2991
L1883L
sV\u52b2
p2992
L1884L
sV\u75ab
p2993
L1885L
sV\u6b96
p2994
L1886L
sV\u9cdf
p2995
L1887L
sV\u7596
p2996
L1888L
sV\u6cdb
p2997
L1889L
sV\u83cc
p2998
L1890L
sV\u5fae
p2999
L1891L
sV\u76fc
p3000
L1892L
sV\u5e2e
p3001
L1893L
sV\u5de9
p3002
L1894L
sV\u8b66
p3003
L1895L
sV\u9879
p3004
L1896L
sV\u94c5
p3005
L1897L
sV\u62b5
p3006
L1898L
sV\u654c
p3007
L1899L
sV\u57df
p3008
L1900L
sV\u72ed
p3009
L1901L
sV\u4e4f
p3010
L1902L
sV\u57ae
p3011
L1903L
sV\u8336
p3012
L1904L
sV\u4ef0
p3013
L1905L
sV\u51cc
p3014
L1906L
sV\u4f8b
p3015
L1907L
sV\u4e52
p3016
L1908L
sV\u4e53
p3017
L1909L
sV\u6602
p3018
L1910L
sV\u79d2
p3019
L1911L
sV\u8d3e
p3020
L1912L
sV\u690d
p3021
L1913L
sV\u8ba2
p3022
L1914L
sV\u773a
p3023
L1915L
sV\u6570
p3024
L1916L
sV\u5e06
p3025
L1917L
sV\u6ed4
p3026
L1918L
sV\u72fc
p3027
L1919L
sV\u59d3
p3028
L1920L
sV\u6050
p3029
L1921L
sV\u9b54
p3030
L1922L
sV\u5495
p3031
L1923L
sV\u565c
p3032
L1924L
sV\u505c
p3033
L1925L
sV\u5948
p3034
L1926L
sV\u8d60
p3035
L1927L
sV\u89d2
p3036
L1928L
sV\u7011
p3037
L1929L
sV\u503e
p3038
L1930L
sV\u6876
p3039
L1931L
sV\u5761
p3040
L1932L
sV\u5824
p3041
L1933L
sV\u57a6
p3042
L1934L
sV\u7f9a
p3043
L1935L
sV\u77a7
p3044
L1936L
sV\u718a
p3045
L1937L
sV\u7bf7
p3046
L1938L
sV\u7ef3
p3047
L1939L
sV\u62f4
p3048
L1940L
sV\u6d78
p3049
L1941L
sV\u9707
p3050
L1942L
sV\u6d69
p3051
L1943L
sV\u5085
p3052
L1944L
sV\u79ba
p3053
L1945L
sV\u620f
p3054
L1946L
sV\u5199
p3055
L1947L
sV\u5bfb
p3056
L1948L
sV\u8bfb
p3057
L1949L
sV\u8457
p3058
L1950L
sV\u60d5
p3059
L1951L
sV\u814b
p3060
L1952L
sV\u6905
p3061
L1953L
sV\u6321
p3062
L1954L
sV\u62e6
p3063
L1955L
sV\u65fa
p3064
L1956L
sV\u4ed4
p3065
L1957L
sV\u68d2
p3066
L1958L
sV\u51b0
p3067
L1959L
sV\u6b79
p3068
L1960L
sV\u6170
p3069
L1961L
sV\u4e73
p3070
L1962L
sV\u6263
p3071
L1963L
sV\u732b
p3072
L1964L
sV\u79c3
p3073
L1965L
sV\u9e6b
p3074
L1966L
sV\u8dbe
p3075
L1967L
sV\u722a
p3076
L1968L
sV\u9686
p3077
L1969L
sV\u7b7e
p3078
L1970L
sV\u58a9
p3079
L1971L
sV\u6e7e
p3080
L1972L
sV\u96cc
p3081
L1973L
sV\u9e1f
p3082
L1974L
sV\u5b75
p3083
L1975L
sV\u5375
p3084
L1976L
sV\u9970
p3085
L1977L
sV\u7e41
p3086
L1978L
sV\u6388
p3087
L1979L
sV\u5b5f
p3088
L1980L
sV\u8363
p3089
L1981L
sV\u65bd
p3090
L1982L
sV\u7b26
p3091
L1983L
sV\u7af9
p3092
L1984L
sV\u97e6
p3093
L1985L
sV\u6746
p3094
L1986L
sV\u781a
p3095
L1987L
sV\u5d29
p3096
L1988L
sV\u72d7
p3097
L1989L
sV\u732a
p3098
L1990L
sV\u9605
p3099
L1991L
sV\u9022
p3100
L1992L
sV\u6bd5
p3101
L1993L
sV\u5f79
p3102
L1994L
sV\u9738
p3103
L1995L
sV\u5065
p3104
L1996L
sV\u576f
p3105
L1997L
sV\u6e9c
p3106
L1998L
sV\u5b69
p3107
L1999L
sV\u800d
p3108
L2000L
sV\u64b0
p3109
L2001L
sV\u8270
p3110
L2002L
sV\u6da9
p3111
L2003L
sV\u5e19
p3112
L2004L
sV\u9c8d
p3113
L2005L
sV\u5de8
p3114
L2006L
sV\u90ed
p3115
L2007L
sV\u9038
p3116
L2008L
sV\u835f
p3117
L2009L
sV\u8403
p3118
L2010L
sV\u54b8
p3119
L2011L
sV\u7626
p3120
L2012L
sV\u4f7b
p3121
L2013L
sV\u793c
p3122
L2014L
sV\u4e58
p3123
L2015L
sV\u96c1
p3124
L2016L
sV\u680b
p3125
L2017L
sV\u5315
p3126
L2018L
sV\u7b77
p3127
L2019L
sV\u9505
p3128
L2020L
sV\u7fd8
p3129
L2021L
sV\u57d4
p3130
L2022L
sV\u5be8
p3131
L2023L
sV\u87ba
p3132
L2024L
sV\u5200
p3133
L2025L
sV\u55e1
p3134
L2026L
sV\u867e
p3135
L2027L
sV\u817a
p3136
L2028L
sV\u4f50
p3137
L2029L
sV\u836b
p3138
L2030L
sV\u78cb
p3139
L2031L
sV\u83f1
p3140
L2032L
sV\u60e8
p3141
L2033L
sV\u501f
p3142
L2034L
sV\u5462
p3143
L2035L
sV\u80a4
p3144
L2036L
sV\u7816
p3145
L2037L
sV\u68cd
p3146
L2038L
sV\u88ad
p3147
L2039L
sV\u66b4
p3148
L2040L
sV\u7728
p3149
L2041L
sV\u54a7
p3150
L2042L
sV\u7236
p3151
L2043L
sV\u6682
p3152
L2044L
sV\u7840
p3153
L2045L
sV\u9885
p3154
L2046L
sV\u7ca5
p3155
L2047L
sV\u6591
p3156
L2048L
sV\u95ed
p3157
L2049L
sV\u7965
p3158
L2050L
sV\u7779
p3159
L2051L
sV\u516e
p3160
L2052L
sV\u873f
p3161
L2053L
sV\u8712
p3162
L2054L
sV\u5c7f
p3163
L2055L
sV\u682a
p3164
L2056L
sV\u6da4
p3165
L2057L
sV\u5242
p3166
L2058L
sV\u8bbc
p3167
L2059L
sV\u6930
p3168
L2060L
sV\u7565
p3169
L2061L
sV\u5c61
p3170
L2062L
sV\u68f5
p3171
L2063L
sV\u517c
p3172
L2064L
sV\u84ec
p3173
L2065L
sV\u52c3
p3174
L2066L
sV\u626f
p3175
L2067L
sV\u5eb5
p3176
L2068L
sV\u6846
p3177
L2069L
sV\u53f9
p3178
L2070L
sV\u6c22
p3179
L2071L
sV\u6d2a
p3180
L2072L
sV\u594e
p3181
L2073L
sV\u7784
p3182
L2074L
sV\u8367
p3183
L2075L
sV\u54fc
p3184
L2076L
sV\u5527
p3185
L2077L
sV\u8155
p3186
L2078L
sV\u5a9b
p3187
L2079L
sV\u5d14
p3188
L2080L
sV\u8dfb
p3189
L2081L
sV\u7838
p3190
L2082L
sV\u6467
p3191
L2083L
sV\u5e97
p3192
L2084L
sV\u521d
p3193
L2085L
sV\u77e9
p3194
L2086L
sV\u5055
p3195
L2087L
sV\u7237
p3196
L2088L
sV\u6cf0
p3197
L2089L
sV\u60ec
p3198
L2090L
sV\u9ea6
p3199
L2091L
sV\u8096
p3200
L2092L
sV\u5c48
p3201
L2093L
sV\u5b87
p3202
L2094L
sV\u9a86
p3203
L2095L
sV\u745b
p3204
L2096L
sV\u5211
p3205
L2097L
sV\u8231
p3206
L2098L
sV\u5e62
p3207
L2099L
sV\u7ef5
p3208
L2100L
sV\u62da
p3209
L2101L
sV\u6f9c
p3210
L2102L
sV\u88c1
p3211
L2103L
sV\u5b9d
p3212
L2104L
sV\u9977
p3213
L2105L
sV\u6ed1
p3214
L2106L
sV\u8e66
p3215
L2107L
sV\u6787
p3216
L2108L
sV\u6777
p3217
L2109L
sV\u5ae3
p3218
L2110L
sV\u5e15
p3219
L2111L
sV\u692d
p3220
L2112L
sV\u73e0
p3221
L2113L
sV\u6b3a
p3222
L2114L
sV\u971c
p3223
L2115L
sV\u50b2
p3224
L2116L
sV\u633a
p3225
L2117L
sV\u7aed
p3226
L2118L
sV\u6e14
p3227
L2119L
sV\u641e
p3228
L2120L
sV\u6ee5
p3229
L2121L
sV\u77ee
p3230
L2122L
sV\u6346
p3231
L2123L
sV\u5806
p3232
L2124L
sV\u58f3
p3233
L2125L
sV\u5ca9
p3234
L2126L
sV\u5608
p3235
L2127L
sV\u9669
p3236
L2128L
sV\u6350
p3237
L2129L
sV\u80a0
p3238
L2130L
sV\u809a
p3239
L2131L
sV\u6070
p3240
L2132L
sV\u8fe5
p3241
L2133L
sV\u714c
p3242
L2134L
sV\u7a9f
p3243
L2135L
sV\u814a
p3244
L2136L
sV\u5a36
p3245
L2137L
sV\u90ce
p3246
L2138L
sV\u6062
p3247
L2139L
sV\u6487
p3248
L2140L
sV\u4f2a
p3249
L2141L
sV\u8361
p3250
L2142L
sV\u5bbd
p3251
L2143L
sV\u6f88
p3252
L2144L
sV\u8f69
p3253
L2145L
sV\u8f95
p3254
L2146L
sV\u886c
p3255
L2147L
sV\u754f
p3256
L2148L
sV\u60b2
p3257
L2149L
sV\u51ef
p3258
L2150L
sV\u6e20
p3259
L2151L
sV\u8327
p3260
L2152L
sV\u7f2b
p3261
L2153L
sV\u8c6a
p3262
L2154L
sV\u813e
p3263
L2155L
sV\u7f29
p3264
L2156L
sV\u5179
p3265
L2157L
sV\u5766
p3266
L2158L
sV\u76ca
p3267
L2159L
sV\u9489
p3268
L2160L
sV\u642c
p3269
L2161L
sV\u8fc1
p3270
L2162L
sV\u5ced
p3271
L2163L
sV\u6073
p3272
L2164L
sV\u795d
p3273
L2165L
sV\u8dcc
p3274
L2166L
sV\u55bb
p3275
L2167L
sV\u79c1
p3276
L2168L
sV\u59c6
p3277
L2169L
sV\u90ae
p3278
L2170L
sV\u6cbf
p3279
L2171L
sV\u4f2f
p3280
L2172L
sV\u6842
p3281
L2173L
sV\u946b
p3282
L2174L
sV\u9b41
p3283
L2175L
sV\u6a1f
p3284
L2176L
sV\u6d3d
p3285
L2177L
sV\u60dc
p3286
L2178L
sV\u95f2
p3287
L2179L
sV\u94ce
p3288
L2180L
sV\u5178
p3289
L2181L
sV\u632a
p3290
L2182L
sV\u7cc1
p3291
L2183L
sV\u8f86
p3292
L2184L
sV\u545c
p3293
L2185L
sV\u64ce
p3294
L2186L
sV\u9178
p3295
L2187L
sV\u8ff0
p3296
L2188L
sV\u6c8f
p3297
L2189L
sV\u659f
p3298
L2190L
sV\u6d89
p3299
L2191L
sV\u5c38
p3300
L2192L
sV\u66dd
p3301
L2193L
sV\u817f
p3302
L2194L
sV\u7cae
p3303
L2195L
sV\u6e34
p3304
L2196L
sV\u6cc9
p3305
L2197L
sV\u8d75
p3306
L2198L
sV\u6ce3
p3307
L2199L
sV\u7ec3
p3308
L2200L
sV\u8010
p3309
L2201L
sV\u7ed5
p3310
L2202L
sV\u5029
p3311
L2203L
sV\u5e7c
p3312
L2204L
sV\u6cfc
p3313
L2205L
sV\u58a8
p3314
L2206L
sV\u5a07
p3315
L2207L
sV\u8d34
p3316
L2208L
sV\u9a70
p3317
L2209L
sV\u7686
p3318
L2210L
sV\u5f8b
p3319
L2211L
sV\u54fd
p3320
L2212L
sV\u6084
p3321
L2213L
sV\u9012
p3322
L2214L
sV\u5c4a
p3323
L2215L
sV\u77cd
p3324
L2216L
sV\u94c4
p3325
L2217L
sV\u8be6
p3326
L2218L
sV\u5e18
p3327
L2219L
sV\u673d
p3328
L2220L
sV\u63c9
p3329
L2221L
sV\u80a9
p3330
L2222L
sV\u4fef
p3331
L2223L
sV\u53c9
p3332
L2224L
sV\u7f13
p3333
L2225L
sV\u8870
p3334
L2226L
sV\u61d2
p3335
L2227L
sV\u60f0
p3336
L2228L
sV\u68ad
p3337
L2229L
sV\u7761
p3338
L2230L
sV\u8015
p3339
L2231L
sV\u8018
p3340
L2232L
sV\u82ac
p3341
L2233L
sV\u6ea2
p3342
L2234L
sV\u4faf
p3343
L2235L
sV\u6f84
p3344
L2236L
sV\u65ed
p3345
L2237L
sV\u9f9a
p3346
L2238L
sV\u85e9
p3347
L2239L
sV\u84dd
p3348
L2240L
sV\u6bd7
p3349
L2241L
sV\u91ca
p3350
L2242L
sV\u8fe6
p3351
L2243L
sV\u725f
p3352
L2244L
sV\u7ee3
p3353
L2245L
sV\u8292
p3354
L2246L
sV\u88e4
p3355
L2247L
sV\u8033
p3356
L2248L
sV\u5b54
p3357
L2249L
sV\u96c0
p3358
L2250L
sV\u5471
p3359
L2251L
sV\u5366
p3360
L2252L
sV\u90bb
p3361
L2253L
sV\u6252
p3362
L2254L
sV\u9523
p3363
L2255L
sV\u9f13
p3364
L2256L
sV\u62d2
p3365
L2257L
sV\u8083
p3366
L2258L
sV\u7ea0
p3367
L2259L
sV\u7b28
p3368
L2260L
sV\u6f06
p3369
L2261L
sV\u5c9b
p3370
L2262L
sV\u5140
p3371
L2263L
sV\u5d99
p3372
L2264L
sV\u5ccb
p3373
L2265L
sV\u7901
p3374
L2266L
sV\u8473
p3375
L2267L
sV\u8564
p3376
L2268L
sV\u50e7
p3377
L2269L
sV\u788e
p3378
L2270L
sV\u6714
p3379
L2271L
sV\u54a8
p3380
L2272L
sV\u8be2
p3381
L2273L
sV\u961c
p3382
L2274L
sV\u909b
p3383
L2275L
sV\u7b3c
p3384
L2276L
sV\u68f1
p3385
L2277L
sV\u9636
p3386
L2278L
sV\u68af
p3387
L2279L
sV\u6398
p3388
L2280L
sV\u5b8b
p3389
L2281L
sV\u9528
p3390
L2282L
sV\u7a74
p3391
L2283L
sV\u7b14
p3392
L2284L
sV\u5800
p3393
L2285L
sV\u59ca
p3394
L2286L
sV\u6ee8
p3395
L2287L
sV\u8584
p3396
L2288L
sV\u8eb2
p3397
L2289L
sV\u65ee
p3398
L2290L
sV\u65ef
p3399
L2291L
sV\u6dcc
p3400
L2292L
sV\u6cea
p3401
L2293L
sV\u7eba
p3402
L2294L
sV\u7f62
p3403
L2295L
sV\u63ba
p3404
L2296L
sV\u6291
p3405
L2297L
sV\u679a
p3406
L2298L
sV\u804b
p3407
L2299L
sV\u54d1
p3408
L2300L
sV\u903c
p3409
L2301L
sV\u73b2
p3410
L2302L
sV\u93d6
p3411
L2303L
sV\u8273
p3412
L2304L
sV\u5d1b
p3413
L2305L
sV\u80ae
p3414
L2306L
sV\u5c16
p3415
L2307L
sV\u949d
p3416
L2308L
sV\u5d16
p3417
L2309L
sV\u6eaa
p3418
L2310L
sV\u727a
p3419
L2311L
sV\u7272
p3420
L2312L
sV\u60df
p3421
L2313L
sV\u4ef2
p3422
L2314L
sV\u5021
p3423
L2315L
sV\u8bca
p3424
L2316L
sV\u743c
p3425
L2317L
sV\u906e
p3426
L2318L
sV\u6726
p3427
L2319L
sV\u80e7
p3428
L2320L
sV\u552f
p3429
L2321L
sV\u70c1
p3430
L2322L
sV\u4ed8
p3431
L2323L
sV\u826f
p3432
L2324L
sV\u6b67
p3433
L2325L
sV\u9cc4
p3434
L2326L
sV\u6446
p3435
L2327L
sV\u62df
p3436
L2328L
sV\u80d6
p3437
L2329L
sV\u7238
p3438
L2330L
sV\u6212
p3439
L2331L
sV\u6f20
p3440
L2332L
sV\u81ed
p3441
L2333L
sV\u662d
p3442
L2334L
sV\u8c0d
p3443
L2335L
sV\u5ddd
p3444
L2336L
sV\u4f5a
p3445
L2337L
sV\u7aa5
p3446
L2338L
sV\u8e48
p3447
L2339L
sV\u60ed
p3448
L2340L
sV\u6127
p3449
L2341L
sV\u607c
p3450
L2342L
sV\u4e30
p3451
L2343L
sV\u66ae
p3452
L2344L
sV\u78a3
p3453
L2345L
sV\u7891
p3454
L2346L
sV\u9cca
p3455
L2347L
sV\u80ed
p3456
L2348L
sV\u8102
p3457
L2349L
sV\u8c22
p3458
L2350L
sV\u664b
p3459
L2351L
sV\u6052
p3460
L2352L
sV\u611a
p3461
L2353L
sV\u53db
p3462
L2354L
sV\u8d3f
p3463
L2355L
sV\u7518
p3464
L2356L
sV\u85af
p3465
L2357L
sV\u86fe
p3466
L2358L
sV\u5983
p3467
L2359L
sV\u8463
p3468
L2360L
sV\u9102
p3469
L2361L
sV\u5f29
p3470
L2362L
sV\u64bc
p3471
L2363L
sV\u5ce8
p3472
L2364L
sV\u9aa4
p3473
L2365L
sV\u63a0
p3474
L2366L
sV\u832b
p3475
L2367L
sV\u51a4
p3476
L2368L
sV\u960e
p3477
L2369L
sV\u6345
p3478
L2370L
sV\u7cdf
p3479
L2371L
sV\u7fe0
p3480
L2372L
sV\u4e1b
p3481
L2373L
sV\u950b
p3482
L2374L
sV\u4f73
p3483
L2375L
sV\u5a25
p3484
L2376L
sV\u8f9b
p3485
L2377L
sV\u7f00
p3486
L2378L
sV\u6390
p3487
L2379L
sV\u8116
p3488
L2380L
sV\u6014
p3489
L2381L
sV\u6e17
p3490
L2382L
sV\u52d8
p3491
L2383L
sV\u51b6
p3492
L2384L
sV\u70bc
p3493
L2385L
sV\u58e4
p3494
L2386L
sV\u6696
p3495
L2387L
sV\u5636
p3496
L2388L
sV\u67d1
p3497
L2389L
sV\u6854
p3498
L2390L
sV\u66f3
p3499
L2391L
sV\u968b
p3500
L2392L
sV\u7080
p3501
L2393L
sV\u5e96
p3502
L2394L
sV\u53a8
p3503
L2395L
sV\u64c5
p3504
L2396L
sV\u4e43
p3505
L2397L
sV\u75b2
p3506
L2398L
sV\u4fa3
p3507
L2399L
sV\u5ffd
p3508
L2400L
sV\u8574
p3509
L2401L
sV\u50a9
p3510
L2402L
sV\u7532
p3511
L2403L
sV\u868c
p3512
L2404L
sV\u8d9f
p3513
L2405L
sV\u71ac
p3514
L2406L
sV\u714e
p3515
L2407L
sV\u6c64
p3516
L2408L
sV\u53ec
p3517
L2409L
sV\u8fbd
p3518
L2410L
sV\u9971
p3519
L2411L
sV\u5fe0
p3520
L2412L
sV\u7f22
p3521
L2413L
sV\u808c
p3522
L2414L
sV\u6897
p3523
L2415L
sV\u5154
p3524
L2416L
sV\u7334
p3525
L2417L
sV\u6df9
p3526
L2418L
sV\u8bb7
p3527
L2419L
sV\u6fe1
p3528
L2420L
sV\u949e
p3529
L2421L
sV\u78c1
p3530
L2422L
sV\u543e
p3531
L2423L
sV\u76f2
p3532
L2424L
sV\u77a0
p3533
L2425L
sV\u820c
p3534
L2426L
sV\u646d
p3535
L2427L
sV\u6ce0
p3536
L2428L
sV\u68da
p3537
L2429L
sV\u8651
p3538
L2430L
sV\u9975
p3539
L2431L
sV\u6254
p3540
L2432L
sV\u94dd
p3541
L2433L
sV\u818f
p3542
L2434L
sV\u8206
p3543
L2435L
sV\u5300
p3544
L2436L
sV\u672d
p3545
L2437L
sV\u5e4c
p3546
L2438L
sV\u5195
p3547
L2439L
sV\u54f2
p3548
L2440L
sV\u8fc8
p3549
L2441L
sV\u5740
p3550
L2442L
sV\u54c4
p3551
L2443L
sV\u5951
p3552
L2444L
sV\u9976
p3553
L2445L
sV\u6055
p3554
L2446L
sV\u5561
p3555
L2447L
sV\u8f9f
p3556
L2448L
sV\u7089
p3557
L2449L
sV\u5956
p3558
L2450L
sV\u5f0a
p3559
L2451L
sV\u5520
p3560
L2452L
sV\u55d1
p3561
L2453L
sV\u8bc9
p3562
L2454L
sV\u59da
p3563
L2455L
sV\u5496
p3564
L2456L
sV\u4fca
p3565
L2457L
sV\u5854
p3566
L2458L
sV\u56e4
p3567
L2459L
sV\u60a6
p3568
L2460L
sV\u4e9f
p3569
L2461L
sV\u6311
p3570
L2462L
sV\u848b
p3571
L2463L
sV\u5a1f
p3572
L2464L
sV\u5ed6
p3573
L2465L
sV\u9e3e
p3574
L2466L
sV\u51e4
p3575
L2467L
sV\u7fdf
p3576
L2468L
sV\u84c9
p3577
L2469L
sV\u859b
p3578
L2470L
sV\u50a8
p3579
L2471L
sV\u67ef
p3580
L2472L
sV\u76d1
p3581
L2473L
sV\u7763
p3582
L2474L
sV\u67dc
p3583
L2475L
sV\u51bb
p3584
L2476L
sV\u88d4
p3585
L2477L
sV\u7ebd
p3586
L2478L
sV\u67b6
p3587
L2479L
sV\u6881
p3588
L2480L
sV\u8896
p3589
L2481L
sV\u594b
p3590
L2482L
sV\u80f8
p3591
L2483L
sV\u561f
p3592
L2484L
sV\u8e29
p3593
L2485L
sV\u8df7
p3594
L2486L
sV\u7b80
p3595
L2487L
sV\u7b4b
p3596
L2488L
sV\u7ef7
p3597
L2489L
sV\u888d
p3598
L2490L
sV\u9165
p3599
L2491L
sV\u9a91
p3600
L2492L
sV\u9a8b
p3601
L2493L
sV\u9655
p3602
L2494L
sV\u94e3
p3603
L2495L
sV\u8bc8
p3604
L2496L
sV\u9a97
p3605
L2497L
sV\u5389
p3606
L2498L
sV\u8d54
p3607
L2499L
sV\u507f
p3608
L2500L
sV\u635e
p3609
L2501L
sV\u7ce0
p3610
L2502L
sV\u51a0
p3611
L2503L
sV\u8bfd
p3612
L2504L
sV\u8c24
p3613
L2505L
sV\u4ec1
p3614
L2506L
sV\u8fd4
p3615
L2507L
sV\u5885
p3616
L2508L
sV\u7f72
p3617
L2509L
sV\u94b0
p3618
L2510L
sV\u83b9
p3619
L2511L
sV\u732e
p3620
L2512L
sV\u7126
p3621
L2513L
sV\u4e01
p3622
L2514L
sV\u756a
p3623
L2515L
sV\u54c0
p3624
L2516L
sV\u8d6b
p3625
L2517L
sV\u6a80
p3626
L2518L
sV\u56ca
p3627
L2519L
sV\u8e81
p3628
L2520L
sV\u4e56
p3629
L2521L
sV\u8212
p3630
L2522L
sV\u5589
p3631
L2523L
sV\u5499
p3632
L2524L
sV\u524c
p3633
L2525L
sV\u94c3
p3634
L2526L
sV\u953b
p3635
L2527L
sV\u6e4d
p3636
L2528L
sV\u89c8
p3637
L2529L
sV\u699c
p3638
L2530L
sV\u7ca4
p3639
L2531L
sV\u6fee
p3640
L2532L
sV\u4eff
p3641
L2533L
sV\u7a17
p3642
L2534L
sV\u7b52
p3643
L2535L
sV\u5c0a
p3644
L2536L
sV\u4ea8
p3645
L2537L
sV\u86d9
p3646
L2538L
sV\u7578
p3647
L2539L
sV\u55c5
p3648
L2540L
sV\u90dd
p3649
L2541L
sV\u634f
p3650
L2542L
sV\u5b88
p3651
L2543L
sV\u8776
p3652
L2544L
sV\u6f0f
p3653
L2545L
sV\u60f6
p3654
L2546L
sV\u641c
p3655
L2547L
sV\u9675
p3656
L2548L
sV\u758f
p3657
L2549L
sV\u6d5a
p3658
L2550L
sV\u6ecb
p3659
L2551L
sV\u60e7
p3660
L2552L
sV\u70ab
p3661
L2553L
sV\u752b
p3662
L2554L
sV\u8a3e
p3663
L2555L
sV\u838e
p3664
L2556L
sV\u72e1
p3665
L2557L
sV\u733e
p3666
L2558L
sV\u8d56
p3667
L2559L
sV\u7a3f
p3668
L2560L
sV\u541f
p3669
L2561L
sV\u6f47
p3670
L2562L
sV\u6d12
p3671
L2563L
sV\u6001
p3672
L2564L
sV\u6c90
p3673
L2565L
sV\u8301
p3674
L2566L
sV\u67cf
p3675
L2567L
sV\u7d2b
p3676
L2568L
sV\u5076
p3677
L2569L
sV\u6323
p3678
L2570L
sV\u975b
p3679
L2571L
sV\u7457
p3680
L2572L
sV\u90e2
p3681
L2573L
sV\u5729
p3682
L2574L
sV\u8c6b
p3683
L2575L
sV\u7696
p3684
L2576L
sV\u6405
p3685
L2577L
sV\u62b9
p3686
L2578L
sV\u75b5
p3687
L2579L
sV\u568e
p3688
L2580L
sV\u5fe7
p3689
L2581L
sV\u5494
p3690
L2582L
sV\u5693
p3691
L2583L
sV\u5e7b
p3692
L2584L
sV\u4f64
p3693
L2585L
sV\u6ca7
p3694
L2586L
sV\u5835
p3695
L2587L
sV\u761f
p3696
L2588L
sV\u90b8
p3697
L2589L
sV\u8d63
p3698
L2590L
sV\u95fd
p3699
L2591L
sV\u74f7
p3700
L2592L
sV\u5de7
p3701
L2593L
sV\u73d1
p3702
L2594L
sV\u79e9
p3703
L2595L
sV\u695e
p3704
L2596L
sV\u7586
p3705
L2597L
sV\u6977
p3706
L2598L
sV\u79b9
p3707
L2599L
sV\u84b2
p3708
L2600L
sV\u6816
p3709
L2601L
sV\u80c6
p3710
L2602L
sV\u80b4
p3711
L2603L
sV\u8e0f
p3712
L2604L
sV\u6cbd
p3713
L2605L
sV\u70ad
p3714
L2606L
sV\u52df
p3715
L2607L
sV\u5e37
p3716
L2608L
sV\u82af
p3717
L2609L
sV\u4f22
p3718
L2610L
sV\u832c
p3719
L2611L
sV\u51cb
p3720
L2612L
sV\u8865
p3721
L2613L
sV\u5f7c
p3722
L2614L
sV\u8f67
p3723
L2615L
sV\u76db
p3724
L2616L
sV\u83b2
p3725
L2617L
sV\u7096
p3726
L2618L
sV\u6cf5
p3727
L2619L
sV\u54c7
p3728
L2620L
sV\u9f3b
p3729
L2621L
sV\u4e11
p3730
L2622L
sV\u61ca
p3731
L2623L
sV\u6b47
p3732
L2624L
sV\u94dc
p3733
L2625L
sV\u94bf
p3734
L2626L
sV\u86c6
p3735
L2627L
sV\u86af
p3736
L2628L
sV\u8693
p3737
L2629L
sV\u723d
p3738
L2630L
sV\u6021
p3739
L2631L
sV\u6db5
p3740
L2632L
sV\u539a
p3741
L2633L
sV\u6a31
p3742
L2634L
sV\u83ba
p3743
L2635L
sV\u8537
p3744
L2636L
sV\u8587
p3745
L2637L
sV\u900d
p3746
L2638L
sV\u5d2d
p3747
L2639L
sV\u840e
p3748
L2640L
sV\u7cb9
p3749
L2641L
sV\u5189
p3750
L2642L
sV\u6bef
p3751
L2643L
sV\u558a
p3752
L2644L
sV\u7cb1
p3753
L2645L
sV\u594f
p3754
L2646L
sV\u8205
p3755
L2647L
sV\u5543
p3756
L2648L
sV\u8c89
p3757
L2649L
sV\u61a8
p3758
L2650L
sV\u5b09
p3759
L2651L
sV\u6986
p3760
L2652L
sV\u9093
p3761
L2653L
sV\u6840
p3762
L2654L
sV\u7ea3
p3763
L2655L
sV\u964b
p3764
L2656L
sV\u5632
p3765
L2657L
sV\u916c
p3766
L2658L
sV\u5a49
p3767
L2659L
sV\u9a88
p3768
L2660L
sV\u5996
p3769
L2661L
sV\u5b7d
p3770
L2662L
sV\u6850
p3771
L2663L
sV\u8c2c
p3772
L2664L
sV\u5631
p3773
L2665L
sV\u70b3
p3774
L2666L
sV\u6bd9
p3775
L2667L
sV\u997c
p3776
L2668L
sV\u5949
p3777
L2669L
sV\u5bc7
p3778
L2670L
sV\u7f79
p3779
L2671L
sV\u6059
p3780
L2672L
sV\u9981
p3781
L2673L
sV\u7f0e
p3782
L2674L
sV\u6e21
p3783
L2675L
sV\u7426
p3784
L2676L
sV\u6863
p3785
L2677L
sV\u8e6d
p3786
L2678L
sV\u5587
p3787
L2679L
sV\u53ed
p3788
L2680L
sV\u7a98
p3789
L2681L
sV\u8f7f
p3790
L2682L
sV\u5522
p3791
L2683L
sV\u5450
p3792
L2684L
sV\u7f94
p3793
L2685L
sV\u6e83
p3794
L2686L
sV\u6ce1
p3795
L2687L
sV\u68e0
p3796
L2688L
sV\u6377
p3797
L2689L
sV\u53a6
p3798
L2690L
sV\u60f9
p3799
L2691L
sV\u69bb
p3800
L2692L
sV\u8d2f
p3801
L2693L
sV\u5960
p3802
L2694L
sV\u8c41
p3803
L2695L
sV\u8471
p3804
L2696L
sV\u5b5d
p3805
L2697L
sV\u5321
p3806
L2698L
sV\u81e7
p3807
L2699L
sV\u658c
p3808
L2700L
sV\u7166
p3809
L2701L
sV\u6cde
p3810
L2702L
sV\u6a61
p3811
L2703L
sV\u8ff7
p3812
L2704L
sV\u6dd8
p3813
L2705L
sV\u8446
p3814
L2706L
sV\u6500
p3815
L2707L
sV\u711a
p3816
L2708L
sV\u62ab
p3817
L2709L
sV\u80c4
p3818
L2710L
sV\u85fb
p3819
L2711L
sV\u5018
p3820
L2712L
sV\u5e44
p3821
L2713L
sV\u4f69
p3822
L2714L
sV\u5238
p3823
L2715L
sV\u8d37
p3824
L2716L
sV\u9897
p3825
L2717L
sV\u66ff
p3826
L2718L
sV\u4f10
p3827
L2719L
sV\u75a1
p3828
L2720L
sV\u6d8c
p3829
L2721L
sV\u6674
p3830
L2722L
sV\u6469
p3831
L2723L
sV\u60c6
p3832
L2724L
sV\u6005
p3833
L2725L
sV\u55a7
p3834
L2726L
sV\u884d
p3835
L2727L
sV\u9881
p3836
L2728L
sV\u7bd3
p3837
L2729L
sV\u830f
p3838
L2730L
sV\u69ce
p3839
L2731L
sV\u6860
p3840
L2732L
sV\u866c
p3841
L2733L
sV\u851a
p3842
L2734L
sV\u63e3
p3843
L2735L
sV\u5600
p3844
L2736L
sV\u60e0
p3845
L2737L
sV\u7235
p3846
L2738L
sV\u655e
p3847
L2739L
sV\u52f0
p3848
L2740L
sV\u643a
p3849
L2741L
sV\u533f
p3850
L2742L
sV\u852c
p3851
L2743L
sV\u5ac1
p3852
L2744L
sV\u5c09
p3853
L2745L
sV\u548f
p3854
L2746L
sV\u5269
p3855
L2747L
sV\u66f0
p3856
L2748L
sV\u8d48
p3857
L2749L
sV\u89e6
p3858
L2750L
sV\u68b0
p3859
L2751L
sV\u80bf
p3860
L2752L
sV\u704c
p3861
L2753L
sV\u653b
p3862
L2754L
sV\u5203
p3863
L2755L
sV\u5df7
p3864
L2756L
sV\u632f
p3865
L2757L
sV\u8521
p3866
L2758L
sV\u864e
p3867
L2759L
sV\u5bc5
p3868
L2760L
sV\u4ec7
p3869
L2761L
sV\u52cb
p3870
L2762L
sV\u74e3
p3871
L2763L
sV\u6492
p3872
L2764L
sV\u6413
p3873
L2765L
sV\u6d4b
p3874
L2766L
sV\u5349
p3875
L2767L
sV\u956f
p3876
L2768L
sV\u5bf8
p3877
L2769L
sV\u7a0d
p3878
L2770L
sV\u8e6c
p3879
L2771L
sV\u5915
p3880
L2772L
sV\u997a
p3881
L2773L
sV\u68c0
p3882
L2774L
sV\u8f8d
p3883
L2775L
sV\u8fe8
p3884
L2776L
sV\u776b
p3885
L2777L
sV\u5c39
p3886
L2778L
sV\u81c0
p3887
L2779L
sV\u6068
p3888
L2780L
sV\u95ef
p3889
L2781L
sV\u829c
p3890
L2782L
sV\u763e
p3891
L2783L
sV\u614c
p3892
L2784L
sV\u7b0b
p3893
L2785L
sV\u6028
p3894
L2786L
sV\u5b9c
p3895
L2787L
sV\u874e
p3896
L2788L
sV\u7948
p3897
L2789L
sV\u7f06
p3898
L2790L
sV\u5bdd
p3899
L2791L
sV\u7800
p3900
L2792L
sV\u94cd
p3901
L2793L
sV\u6d46
p3902
L2794L
sV\u94ec
p3903
L2795L
sV\u7845
p3904
L2796L
sV\u4e92
p3905
L2797L
sV\u5a77
p3906
L2798L
sV\u73ab
p3907
L2799L
sV\u7470
p3908
L2800L
sV\u7eb1
p3909
L2801L
sV\u8df5
p3910
L2802L
sV\u988d
p3911
L2803L
sV\u94ae
p3912
L2804L
sV\u7750
p3913
L2805L
sV\u8364
p3914
L2806L
sV\u9551
p3915
L2807L
sV\u66fc
p3916
L2808L
sV\u8c1a
p3917
L2809L
sV\u690e
p3918
L2810L
sV\u614e
p3919
L2811L
sV\u633d
p3920
L2812L
sV\u9cdd
p3921
L2813L
sV\u7f54
p3922
L2814L
sV\u629a
p3923
L2815L
sV\u5a76
p3924
L2816L
sV\u5e05
p3925
L2817L
sV\u6491
p3926
L2818L
sV\u5112
p3927
L2819L
sV\u5b85
p3928
L2820L
sV\u8165
p3929
L2821L
sV\u52ab
p3930
L2822L
sV\u68a8
p3931
L2823L
sV\u895f
p3932
L2824L
sV\u9ca8
p3933
L2825L
sV\u5a05
p3934
L2826L
sV\u5bc4
p3935
L2827L
sV\u886b
p3936
L2828L
sV\u889c
p3937
L2829L
sV\u8912
p3938
L2830L
sV\u59d2
p3939
L2831L
sV\u9187
p3940
L2832L
sV\u54ee
p3941
L2833L
sV\u5598
p3942
L2834L
sV\u54b3
p3943
L2835L
sV\u55fd
p3944
L2836L
sV\u80da
p3945
L2837L
sV\u96bd
p3946
L2838L
sV\u83f0
p3947
L2839L
sV\u83bc
p3948
L2840L
sV\u7fb9
p3949
L2841L
sV\u9c88
p3950
L2842L
sV\u810d
p3951
L2843L
sV\u82f9
p3952
L2844L
sV\u8d2e
p3953
L2845L
sV\u8fed
p3954
L2846L
sV\u7eee
p3955
L2847L
sV\u7f28
p3956
L2848L
sV\u70e8
p3957
L2849L
sV\u5b99
p3958
L2850L
sV\u9694
p3959
L2851L
sV\u54d0
p3960
L2852L
sV\u5577
p3961
L2853L
sV\u645e
p3962
L2854L
sV\u9756
p3963
L2855L
sV\u6177
p3964
L2856L
sV\u6168
p3965
L2857L
sV\u50fb
p3966
L2858L
sV\u6fd2
p3967
L2859L
sV\u5580
p3968
L2860L
sV\u5764
p3969
L2861L
sV\u7f42
p3970
L2862L
sV\u7c9f
p3971
L2863L
sV\u6c81
p3972
L2864L
sV\u9ee2
p3973
L2865L
sV\u70af
p3974
L2866L
sV\u5c65
p3975
L2867L
sV\u77eb
p3976
L2868L
sV\u62ac
p3977
L2869L
sV\u621b
p3978
L2870L
sV\u6123
p3979
L2871L
sV\u75d5
p3980
L2872L
sV\u6363
p3981
L2873L
sV\u6735
p3982
L2874L
sV\u5703
p3983
L2875L
sV\u83ca
p3984
L2876L
sV\u6e85
p3985
L2877L
sV\u7eac
p3986
L2878L
sV\u6813
p3987
L2879L
sV\u8461
p3988
L2880L
sV\u5723
p3989
L2881L
sV\u5524
p3990
L2882L
sV\u5475
p3991
L2883L
sV\u5733
p3992
L2884L
sV\u52b1
p3993
L2885L
sV\u502a
p3994
L2886L
sV\u8679
p3995
L2887L
sV\u829d
p3996
L2888L
sV\u5784
p3997
L2889L
sV\u8fc4
p3998
L2890L
sV\u94fe
p3999
L2891L
sV\u5bb4
p4000
L2892L
sV\u5b5a
p4001
L2893L
sV\u5d4c
p4002
L2894L
sV\u6402
p4003
L2895L
sV\u5427
p4004
L2896L
sV\u5f08
p4005
L2897L
sV\u6e5b
p4006
L2898L
sV\u77a9
p4007
L2899L
sV\u76ef
p4008
L2900L
sV\u8377
p4009
L2901L
sV\u72d0
p4010
L2902L
sV\u5413
p4011
L2903L
sV\u50bb
p4012
L2904L
sV\u5955
p4013
L2905L
sV\u6094
p4014
L2906L
sV\u5f66
p4015
L2907L
sV\u54d7
p4016
L2908L
sV\u5251
p4017
L2909L
sV\u9017
p4018
L2910L
sV\u5760
p4019
L2911L
sV\u6eba
p4020
L2912L
sV\u9e4f
p4021
L2913L
sV\u964c
p4022
L2914L
sV\u5ac9
p4023
L2915L
sV\u5992
p4024
L2916L
sV\u5180
p4025
L2917L
sV\u9501
p4026
L2918L
sV\u5b8f
p4027
L2919L
sV\u6284
p4028
L2920L
sV\u7cd5
p4029
L2921L
sV\u642d
p4030
L2922L
sV\u77ac
p4031
L2923L
sV\u6670
p4032
L2924L
sV\u61c2
p4033
L2925L
sV\u62d3
p4034
L2926L
sV\u8c28
p4035
L2927L
sV\u5782
p4036
L2928L
sV\u8f96
p4037
L2929L
sV\u8bd1
p4038
L2930L
sV\u5201
p4039
L2931L
sV\u710a
p4040
L2932L
sV\u85aa
p4041
L2933L
sV\u7fd4
p4042
L2934L
sV\u6749
p4043
L2935L
sV\u77f6
p4044
L2936L
sV\u5339
p4045
L2937L
sV\u83b1
p4046
L2938L
sV\u780d
p4047
L2939L
sV\u80be
p4048
L2940L
sV\u65a9
p4049
L2941L
sV\u7262
p4050
L2942L
sV\u8d26
p4051
L2943L
sV\u9980
p4052
L2944L
sV\u7792
p4053
L2945L
sV\u9a7c
p4054
L2946L
sV\u715e
p4055
L2947L
sV\u631f
p4056
L2948L
sV\u97f6
p4057
L2949L
sV\u4f19
p4058
L2950L
sV\u80f0
p4059
L2951L
sV\u6a44
p4060
L2952L
sV\u6984
p4061
L2953L
sV\u626e
p4062
L2954L
sV\u7eea
p4063
L2955L
sV\u8c23
p4064
L2956L
sV\u903e
p4065
L2957L
sV\u66a8
p4066
L2958L
sV\u804a
p4067
L2959L
sV\u5c41
p4068
L2960L
sV\u54aa
p4069
L2961L
sV\u6dc7
p4070
L2962L
sV\u7eef
p4071
L2963L
sV\u762b
p4072
L2964L
sV\u9524
p4073
L2965L
sV\u7caa
p4074
L2966L
sV\u5265
p4075
L2967L
sV\u917f
p4076
L2968L
sV\u8087
p4077
L2969L
sV\u810a
p4078
L2970L
sV\u8fb1
p4079
L2971L
sV\u6458
p4080
L2972L
sV\u731d
p4081
L2973L
sV\u952e
p4082
L2974L
sV\u65e8
p4083
L2975L
sV\u59a8
p4084
L2976L
sV\u845b
p4085
L2977L
sV\u561b
p4086
L2978L
sV\u8e1d
p4087
L2979L
sV\u80aa
p4088
L2980L
sV\u871c
p4089
L2981L
sV\u9706
p4090
L2982L
sV\u5978
p4091
L2983L
sV\u72f1
p4092
L2984L
sV\u7325
p4093
L2985L
sV\u4eb5
p4094
L2986L
sV\u8fa9
p4095
L2987L
sV\u79df
p4096
L2988L
sV\u8d5a
p4097
L2989L
sV\u5c34
p4098
L2990L
sV\u5c2c
p4099
L2991L
sV\u6ca5
p4100
L2992L
sV\u70eb
p4101
L2993L
sV\u621a
p4102
L2994L
sV\u6790
p4103
L2995L
sV\u6572
p4104
L2996L
sV\u62d8
p4105
L2997L
sV\u9610
p4106
L2998L
sV\u837c
p4107
L2999L
sV\u62f3
p4108
L3000L
sV\u7410
p4109
L3001L
sV\u8e72
p4110
L3002L
sV\u98d9
p4111
L3003L
sV\u608d
p4112
L3004L
sV\u59e3
p4113
L3005L
sV\u6daf
p4114
L3006L
sV\u5398
p4115
L3007L
sV\u900a
p4116
L3008L
sV\u575e
p4117
L3009L
sV\u789f
p4118
L3010L
sV\u7f2d
p4119
L3011L
sV\u6ca6
p4120
L3012L
sV\u82b8
p4121
L3013L
sV\u56a3
p4122
L3014L
sV\u6e1d
p4123
L3015L
sV\u6f2b
p4124
L3016L
sV\u80a2
p4125
L3017L
sV\u6756
p4126
L3018L
sV\u5783
p4127
L3019L
sV\u573e
p4128
L3020L
sV\u83f2
p4129
L3021L
sV\u904f
p4130
L3022L
sV\u731c
p4131
L3023L
sV\u79be
p4132
L3024L
sV\u9eef
p4133
L3025L
sV\u8854
p4134
L3026L
sV\u6d4f
p4135
L3027L
sV\u5254
p4136
L3028L
sV\u5986
p4137
L3029L
sV\u5de2
p4138
L3030L
sV\u6dfb
p4139
L3031L
sV\u6148
p4140
L3032L
sV\u4f6c
p4141
L3033L
sV\u57ab
p4142
L3034L
sV\u840d
p4143
L3035L
sV\u94a7
p4144
L3036L
sV\u9f9f
p4145
L3037L
sV\u9a74
p4146
L3038L
sV\u9ad3
p4147
L3039L
sV\u6f6d
p4148
L3040L
sV\u80ba
p4149
L3041L
sV\u8c1c
p4150
L3042L
sV\u5fbd
p4151
L3043L
sV\u526a
p4152
L3044L
sV\u78c5
p4153
L3045L
sV\u68b3
p4154
L3046L
sV\u53a2
p4155
L3047L
sV\u5455
p4156
L3048L
sV\u8d62
p4157
L3049L
sV\u7ed1
p4158
L3050L
sV\u532a
p4159
L3051L
sV\u8d4e
p4160
L3052L
sV\u7941
p4161
L3053L
sV\u94ed
p4162
L3054L
sV\u4e5e
p4163
L3055L
sV\u8dea
p4164
L3056L
sV\u6de4
p4165
L3057L
sV\u9640
p4166
L3058L
sV\u6808
p4167
L3059L
sV\u9a8f
p4168
L3060L
sV\u745c
p4169
L3061L
sV\u8749
p4170
L3062L
sV\u51f8
p4171
L3063L
sV\u7115
p4172
L3064L
sV\u632b
p4173
L3065L
sV\u50ac
p4174
L3066L
sV\u59dc
p4175
L3067L
sV\u9b4f
p4176
L3068L
sV\u63fd
p4177
L3069L
sV\u970d
p4178
L3070L
sV\u90b1
p4179
L3071L
sV\u7693
p4180
L3072L
sV\u707f
p4181
L3073L
sV\u53d9
p4182
L3074L
sV\u66a7
p4183
L3075L
sV\u6627
p4184
L3076L
sV\u766b
p4185
L3077L
sV\u9493
p4186
L3078L
sV\u6324
p4187
L3079L
sV\u524a
p4188
L3080L
sV\u6151
p4189
L3081L
sV\u7b5b
p4190
L3082L
sV\u6a0a
p4191
L3083L
sV\u831c
p4192
L3084L
sV\u8c2d
p4193
L3085L
sV\u63b7
p4194
L3086L
sV\u6caa
p4195
L3087L
sV\u6dc0
p4196
L3088L
sV\u90ac
p4197
L3089L
sV\u6866
p4198
L3090L
sV\u8d81
p4199
L3091L
sV\u69db
p4200
L3092L
sV\u5272
p4201
L3093L
sV\u60e9
p4202
L3094L
sV\u8f91
p4203
L3095L
sV\u9508
p4204
L3096L
sV\u8fa8
p4205
L3097L
sV\u745f
p4206
L3098L
sV\u7a46
p4207
L3099L
sV\u7f55
p4208
L3100L
sV\u61be
p4209
L3101L
sV\u52d2
p4210
L3102L
sV\u6691
p4211
L3103L
sV\u8c10
p4212
L3104L
sV\u6361
p4213
L3105L
sV\u8707
p4214
L3106L
sV\u62fe
p4215
L3107L
sV\u95f7
p4216
L3108L
sV\u548b
p4217
L3109L
sV\u8f85
p4218
L3110L
sV\u655b
p4219
L3111L
sV\u75d2
p4220
L3112L
sV\u6cc4
p4221
L3113L
sV\u59a5
p4222
L3114L
sV\u8bb6
p4223
L3115L
sV\u634d
p4224
L3116L
sV\u8f97
p4225
L3117L
sV\u6478
p4226
L3118L
sV\u7a57
p4227
L3119L
sV\u8a79
p4228
L3120L
sV\u5ce5
p4229
L3121L
sV\u5c18
p4230
L3122L
sV\u7c3f
p4231
L3123L
sV\u5ec9
p4232
L3124L
sV\u5026
p4233
L3125L
sV\u6bbf
p4234
L3126L
sV\u8a93
p4235
L3127L
sV\u88f8
p4236
L3128L
sV\u75ea
p4237
L3129L
sV\u8f84
p4238
L3130L
sV\u8877
p4239
L3131L
sV\u60a0
p4240
L3132L
sV\u8f68
p4241
L3133L
sV\u8bbd
p4242
L3134L
sV\u777f
p4243
L3135L
sV\u796d
p4244
L3136L
sV\u7f09
p4245
L3137L
sV\u742a
p4246
L3138L
sV\u915d
p4247
L3139L
sV\u5220
p4248
L3140L
sV\u527f
p4249
L3141L
sV\u8404
p4250
L3142L
sV\u75a4
p4251
L3143L
sV\u5938
p4252
L3144L
sV\u846b
p4253
L3145L
sV\u82a6
p4254
L3146L
sV\u62ef
p4255
L3147L
sV\u6c93
p4256
L3148L
sV\u8782
p4257
L3149L
sV\u839e
p4258
L3150L
sV\u62e3
p4259
L3151L
sV\u89d1
p4260
L3152L
sV\u5c3f
p4261
L3153L
sV\u60d1
p4262
L3154L
sV\u7ffc
p4263
L3155L
sV\u8469
p4264
L3156L
sV\u905b
p4265
L3157L
sV\u6f8e
p4266
L3158L
sV\u6e43
p4267
L3159L
sV\u8682
p4268
L3160L
sV\u8681
p4269
L3161L
sV\u5962
p4270
L3162L
sV\u4f88
p4271
L3163L
sV\u4f0f
p4272
L3164L
sV\u8350
p4273
L3165L
sV\u9988
p4274
L3166L
sV\u6cca
p4275
L3167L
sV\u7eca
p4276
L3168L
sV\u59ae
p4277
L3169L
sV\u62dc
p4278
L3170L
sV\u543b
p4279
L3171L
sV\u99a8
p4280
L3172L
sV\u96c7
p4281
L3173L
sV\u4f63
p4282
L3174L
sV\u902e
p4283
L3175L
sV\u709c
p4284
L3176L
sV\u9965
p4285
L3177L
sV\u6e2d
p4286
L3178L
sV\u6401
p4287
L3179L
sV\u9893
p4288
L3180L
sV\u5466
p4289
L3181L
sV\u5cfb
p4290
L3182L
sV\u82db
p4291
L3183L
sV\u8be0
p4292
L3184L
sV\u4f83
p4293
L3185L
sV\u970f
p4294
L3186L
sV\u9716
p4295
L3187L
sV\u6ef4
p4296
L3188L
sV\u901b
p4297
L3189L
sV\u620e
p4298
L3190L
sV\u95eb
p4299
L3191L
sV\u891a
p4300
L3192L
sV\u6a59
p4301
L3193L
sV\u7cca
p4302
L3194L
sV\u8d4b
p4303
L3195L
sV\u7ae3
p4304
L3196L
sV\u97e7
p4305
L3197L
sV\u6a58
p4306
L3198L
sV\u5bc2
p4307
L3199L
sV\u4f5f
p4308
L3200L
sV\u7f9e
p4309
L3201L
sV\u7f44
p4310
L3202L
sV\u70ef
p4311
L3203L
sV\u606d
p4312
L3204L
sV\u52fa
p4313
L3205L
sV\u6b49
p4314
L3206L
sV\u51f3
p4315
L3207L
sV\u6101
p4316
L3208L
sV\u6c1b
p4317
L3209L
sV\u62e2
p4318
L3210L
sV\u7099
p4319
L3211L
sV\u7f81
p4320
L3212L
sV\u7709
p4321
L3213L
sV\u6512
p4322
L3214L
sV\u4fe8
p4323
L3215L
sV\u9e45
p4324
L3216L
sV\u4e10
p4325
L3217L
sV\u576a
p4326
L3218L
sV\u6e24
p4327
L3219L
sV\u5a7f
p4328
L3220L
sV\u6656
p4329
L3221L
sV\u4ed5
p4330
L3222L
sV\u78b1
p4331
L3223L
sV\u6c30
p4332
L3224L
sV\u78f7
p4333
L3225L
sV\u94be
p4334
L3226L
sV\u6c2e
p4335
L3227L
sV\u52b5
p4336
L3228L
sV\u574a
p4337
L3229L
sV\u948a
p4338
L3230L
sV\u5e1c
p4339
L3231L
sV\u5fa1
p4340
L3232L
sV\u6380
p4341
L3233L
sV\u7f1d
p4342
L3234L
sV\u8bff
p4343
L3235L
sV\u7538
p4344
L3236L
sV\u94f8
p4345
L3237L
sV\u6247
p4346
L3238L
sV\u5a04
p4347
L3239L
sV\u97a0
p4348
L3240L
sV\u5792
p4349
L3241L
sV\u5a34
p4350
L3242L
sV\u6273
p4351
L3243L
sV\u952f
p4352
L3244L
sV\u78d5
p4353
L3245L
sV\u5dc5
p4354
L3246L
sV\u5e42
p4355
L3247L
sV\u51fd
p4356
L3248L
sV\u607a
p4357
L3249L
sV\u79fd
p4358
L3250L
sV\u69b4
p4359
L3251L
sV\u6d3c
p4360
L3252L
sV\u997d
p4361
L3253L
sV\u62ce
p4362
L3254L
sV\u7a96
p4363
L3255L
sV\u8346
p4364
L3256L
sV\u6dc6
p4365
L3257L
sV\u6c79
p4366
L3258L
sV\u5256
p4367
L3259L
sV\u82b7
p4368
L3260L
sV\u73ca
p4369
L3261L
sV\u8bb3
p4370
L3262L
sV\u7984
p4371
L3263L
sV\u60bc
p4372
L3264L
sV\u8c05
p4373
L3265L
sV\u950f
p4374
L3266L
sV\u81a8
p4375
L3267L
sV\u9992
p4376
L3268L
sV\u9074
p4377
L3269L
sV\u8718
p4378
L3270L
sV\u86db
p4379
L3271L
sV\u4ed7
p4380
L3272L
sV\u5815
p4381
L3273L
sV\u6dd1
p4382
L3274L
sV\u5a75
p4383
L3275L
sV\u5f64
p4384
L3276L
sV\u5fcc
p4385
L3277L
sV\u66d9
p4386
L3278L
sV\u754a
p4387
L3279L
sV\u5f70
p4388
L3280L
sV\u63ea
p4389
L3281L
sV\u67af
p4390
L3282L
sV\u71e5
p4391
L3283L
sV\u6960
p4392
L3284L
sV\u53ae
p4393
L3285L
sV\u8eaf
p4394
L3286L
sV\u6ee2
p4395
L3287L
sV\u8845
p4396
L3288L
sV\u90b9
p4397
L3289L
sV\u9a84
p4398
L3290L
sV\u5146
p4399
L3291L
sV\u7f05
p4400
L3292L
sV\u575f
p4401
L3293L
sV\u5306
p4402
L3294L
sV\u6615
p4403
L3295L
sV\u4f3d
p4404
L3296L
sV\u8d31
p4405
L3297L
sV\u54d2
p4406
L3298L
sV\u74a7
p4407
L3299L
sV\u537f
p4408
L3300L
sV\u8427
p4409
L3301L
sV\u9175
p4410
L3302L
sV\u7ef0
p4411
L3303L
sV\u5d0e
p4412
L3304L
sV\u9753
p4413
L3305L
sV\u973e
p4414
L3306L
sV\u5cd9
p4415
L3307L
sV\u81fb
p4416
L3308L
sV\u7f2a
p4417
L3309L
sV\u9a7f
p4418
L3310L
sV\u8be1
p4419
L3311L
sV\u5492
p4420
L3312L
sV\u95f8
p4421
L3313L
sV\u6760
p4422
L3314L
sV\u64ac
p4423
L3315L
sV\u6cf7
p4424
L3316L
sV\u8c79
p4425
L3317L
sV\u7741
p4426
L3318L
sV\u60eb
p4427
L3319L
sV\u64c2
p4428
L3320L
sV\u83e1
p4429
L3321L
sV\u73ba
p4430
L3322L
sV\u7131
p4431
L3323L
sV\u8d41
p4432
L3324L
sV\u8c26
p4433
L3325L
sV\u5243
p4434
L3326L
sV\u9a73
p4435
L3327L
sV\u95fa
p4436
L3328L
sV\u5e16
p4437
L3329L
sV\u5c6f
p4438
L3330L
sV\u5bb0
p4439
L3331L
sV\u86ee
p4440
L3332L
sV\u664f
p4441
L3333L
sV\u79c9
p4442
L3334L
sV\u96ef
p4443
L3335L
sV\u72ac
p4444
L3336L
sV\u9875
p4445
L3337L
sV\u7ece
p4446
L3338L
sV\u62c7
p4447
L3339L
sV\u67ff
p4448
L3340L
sV\u6590
p4449
L3341L
sV\u601c
p4450
L3342L
sV\u7316
p4451
L3343L
sV\u7357
p4452
L3344L
sV\u8882
p4453
L3345L
sV\u7455
p4454
L3346L
sV\u8e0a
p4455
L3347L
sV\u9f20
p4456
L3348L
sV\u77bb
p4457
L3349L
sV\u515c
p4458
L3350L
sV\u54e6
p4459
L3351L
sV\u598d
p4460
L3352L
sV\u5f27
p4461
L3353L
sV\u5250
p4462
L3354L
sV\u63b4
p4463
L3355L
sV\u6d47
p4464
L3356L
sV\u7f1a
p4465
L3357L
sV\u9631
p4466
L3358L
sV\u8e4a
p4467
L3359L
sV\u8944
p4468
L3360L
sV\u9502
p4469
L3361L
sV\u9edb
p4470
L3362L
sV\u5c8c
p4471
L3363L
sV\u9a6d
p4472
L3364L
sV\u7ad6
p4473
L3365L
sV\u5c82
p4474
L3366L
sV\u7504
p4475
L3367L
sV\u5b1b
p4476
L3368L
sV\u817b
p4477
L3369L
sV\u95f5
p4478
L3370L
sV\u7a3d
p4479
L3371L
sV\u67ab
p4480
L3372L
sV\u6f7c
p4481
L3373L
sV\u8d61
p4482
L3374L
sV\u9e9f
p4483
L3375L
sV\u8424
p4484
L3376L
sV\u8bb9
p4485
L3377L
sV\u978d
p4486
L3378L
sV\u8517
p4487
L3379L
sV\u7efd
p4488
L3380L
sV\u87d1
p4489
L3381L
sV\u88f9
p4490
L3382L
sV\u8c0e
p4491
L3383L
sV\u6893
p4492
L3384L
sV\u6995
p4493
L3385L
sV\u5288
p4494
L3386L
sV\u5ebe
p4495
L3387L
sV\u65a7
p4496
L3388L
sV\u5b95
p4497
L3389L
sV\u5f18
p4498
L3390L
sV\u8c34
p4499
L3391L
sV\u9761
p4500
L3392L
sV\u8611
p4501
L3393L
sV\u9521
p4502
L3394L
sV\u7d6e
p4503
L3395L
sV\u7ea4
p4504
L3396L
sV\u6c5d
p4505
L3397L
sV\u4e19
p4506
L3398L
sV\u9877
p4507
L3399L
sV\u8339
p4508
L3400L
sV\u4fae
p4509
L3401L
sV\u5f5d
p4510
L3402L
sV\u808b
p4511
L3403L
sV\u7ede
p4512
L3404L
sV\u7985
p4513
L3405L
sV\u6296
p4514
L3406L
sV\u5bb5
p4515
L3407L
sV\u5e7a
p4516
L3408L
sV\u6cf8
p4517
L3409L
sV\u7487
p4518
L3410L
sV\u854a
p4519
L3411L
sV\u7aff
p4520
L3412L
sV\u7fc5
p4521
L3413L
sV\u7b75
p4522
L3414L
sV\u67a3
p4523
L3415L
sV\u75b9
p4524
L3416L
sV\u9576
p4525
L3417L
sV\u8549
p4526
L3418L
sV\u97ad
p4527
L3419L
sV\u8d42
p4528
L3420L
sV\u7be1
p4529
L3421L
sV\u58f9
p4530
L3422L
sV\u96b6
p4531
L3423L
sV\u8f99
p4532
L3424L
sV\u8bdf
p4533
L3425L
sV\u78a7
p4534
L3426L
sV\u6ed5
p4535
L3427L
sV\u574e
p4536
L3428L
sV\u566c
p4537
L3429L
sV\u9709
p4538
L3430L
sV\u7a92
p4539
L3431L
sV\u5777
p4540
L3432L
sV\u9063
p4541
L3433L
sV\u5f6a
p4542
L3434L
sV\u549a
p4543
L3435L
sV\u77e2
p4544
L3436L
sV\u72ee
p4545
L3437L
sV\u5f98
p4546
L3438L
sV\u5f8a
p4547
L3439L
sV\u8299
p4548
L3440L
sV\u80c0
p4549
L3441L
sV\u8d2c
p4550
L3442L
sV\u7682
p4551
L3443L
sV\u62fd
p4552
L3444L
sV\u7a1a
p4553
L3445L
sV\u609a
p4554
L3446L
sV\u74a8
p4555
L3447L
sV\u7977
p4556
L3448L
sV\u8beb
p4557
L3449L
sV\u61a7
p4558
L3450L
sV\u61ac
p4559
L3451L
sV\u6241
p4560
L3452L
sV\u6eaf
p4561
L3453L
sV\u6bfd
p4562
L3454L
sV\u531d
p4563
L3455L
sV\u8f9c
p4564
L3456L
sV\u660a
p4565
L3457L
sV\u5618
p4566
L3458L
sV\u84bf
p4567
L3459L
sV\u4fd8
p4568
L3460L
sV\u803d
p4569
L3461L
sV\u4fde
p4570
L3462L
sV\u716e
p4571
L3463L
sV\u6b92
p4572
L3464L
sV\u8475
p4573
L3465L
sV\u86f0
p4574
L3466L
sV\u56e7
p4575
L3467L
sV\u841d
p4576
L3468L
sV\u6e0a
p4577
L3469L
sV\u8f90
p4578
L3470L
sV\u80eb
p4579
L3471L
sV\u4fea
p4580
L3472L
sV\u747e
p4581
L3473L
sV\u52c9
p4582
L3474L
sV\u5c9a
p4583
L3475L
sV\u8086
p4584
L3476L
sV\u4e18
p4585
L3477L
sV\u67a2
p4586
L3478L
sV\u803f
p4587
L3479L
sV\u62f1
p4588
L3480L
sV\u94f2
p4589
L3481L
sV\u6fe0
p4590
L3482L
sV\u5d34
p4591
L3483L
sV\u8110
p4592
L3484L
sV\u853d
p4593
L3485L
sV\u5e90
p4594
L3486L
sV\u73ee
p4595
L3487L
sV\u6817
p4596
L3488L
sV\u5586
p4597
L3489L
sV\u59d7
p4598
L3490L
sV\u9e6d
p4599
L3491L
sV\u56da
p4600
L3492L
sV\u9ccc
p4601
L3493L
sV\u4f51
p4602
L3494L
sV\u5742
p4603
L3495L
sV\u679e
p4604
L3496L
sV\u6342
p4605
L3497L
sV\u749e
p4606
L3498L
sV\u8822
p4607
L3499L
sV\u6320
p4608
L3500L
sV\u90a2
p4609
L3501L
sV\u4e38
p4610
L3502L
sV\u9157
p4611
L3503L
sV\u6d9e
p4612
L3504L
sV\u7737
p4613
L3505L
sV\u6064
p4614
L3506L
sV\u8774
p4615
L3507L
sV\u6cfe
p4616
L3508L
sV\u9506
p4617
L3509L
sV\u6f29
p4618
L3510L
sV\u6da1
p4619
L3511L
sV\u8037
p4620
L3512L
sV\u545b
p4621
L3513L
sV\u6cfb
p4622
L3514L
sV\u919b
p4623
L3515L
sV\u6c28
p4624
L3516L
sV\u6654
p4625
L3517L
sV\u66e6
p4626
L3518L
sV\u6c40
p4627
L3519L
sV\u73ae
p4628
L3520L
sV\u574d
p4629
L3521L
sV\u54ab
p4630
L3522L
sV\u7480
p4631
L3523L
sV\u5a67
p4632
L3524L
sV\u8236
p4633
L3525L
sV\u97ec
p4634
L3526L
sV\u94b5
p4635
L3527L
sV\u714a
p4636
L3528L
sV\u61c8
p4637
L3529L
sV\u7aa8
p4638
L3530L
sV\u7802
p4639
L3531L
sV\u83bd
p4640
L3532L
sV\u9ecf
p4641
L3533L
sV\u94c0
p4642
L3534L
sV\u5bde
p4643
L3535L
sV\u674f
p4644
L3536L
sV\u5830
p4645
L3537L
sV\u5239
p4646
L3538L
sV\u5ff1
p4647
L3539L
sV\u7076
p4648
L3540L
sV\u9e3d
p4649
L3541L
sV\u5564
p4650
L3542L
sV\u7fb2
p4651
L3543L
sV\u70f9
p4652
L3544L
sV\u996a
p4653
L3545L
sV\u79f8
p4654
L3546L
sV\u79c6
p4655
L3547L
sV\u8eac
p4656
L3548L
sV\u51f0
p4657
L3549L
sV\u592f
p4658
L3550L
sV\u8354
p4659
L3551L
sV\u68d5
p4660
L3552L
sV\u88f4
p4661
L3553L
sV\u5f26
p4662
L3554L
sV\u5937
p4663
L3555L
sV\u7280
p4664
L3556L
sV\u9685
p4665
L3557L
sV\u4f3a
p4666
L3558L
sV\u701a
p4667
L3559L
sV\u543c
p4668
L3560L
sV\u6c9b
p4669
L3561L
sV\u73c0
p4670
L3562L
sV\u665f
p4671
L3563L
sV\u8c0c
p4672
L3564L
sV\u8e1e
p4673
L3565L
sV\u8e7f
p4674
L3566L
sV\u5c94
p4675
L3567L
sV\u6dc4
p4676
L3568L
sV\u6b83
p4677
L3569L
sV\u962e
p4678
L3570L
sV\u6289
p4679
L3571L
sV\u5241
p4680
L3572L
sV\u6c5b
p4681
L3573L
sV\u7184
p4682
L3574L
sV\u94c9
p4683
L3575L
sV\u9549
p4684
L3576L
sV\u6e0e
p4685
L3577L
sV\u73c9
p4686
L3578L
sV\u7fe1
p4687
L3579L
sV\u527d
p4688
L3580L
sV\u9530
p4689
L3581L
sV\u6df3
p4690
L3582L
sV\u9704
p4691
L3583L
sV\u631a
p4692
L3584L
sV\u5e9a
p4693
L3585L
sV\u5594
p4694
L3586L
sV\u4f84
p4695
L3587L
sV\u5c79
p4696
L3588L
sV\u90af
p4697
L3589L
sV\u90f8
p4698
L3590L
sV\u5671
p4699
L3591L
sV\u5be5
p4700
L3592L
sV\u8759
p4701
L3593L
sV\u8760
p4702
L3594L
sV\u6cbc
p4703
L3595L
sV\u76b1
p4704
L3596L
sV\u6d9d
p4705
L3597L
sV\u73a5
p4706
L3598L
sV\u8431
p4707
L3599L
sV\u96a7
p4708
L3600L
sV\u86df
p4709
L3601L
sV\u7444
p4710
L3602L
sV\u6664
p4711
L3603L
sV\u637b
p4712
L3604L
sV\u61ff
p4713
L3605L
sV\u4ea5
p4714
L3606L
sV\u9985
p4715
L3607L
sV\u8de4
p4716
L3608L
sV\u961a
p4717
L3609L
sV\u9619
p4718
L3610L
sV\u6e89
p4719
L3611L
sV\u8012
p4720
L3612L
sV\u8393
p4721
L3613L
sV\u82ef
p4722
L3614L
sV\u58f6
p4723
L3615L
sV\u70fd
p4724
L3616L
sV\u783e
p4725
L3617L
sV\u7708
p4726
L3618L
sV\u533e
p4727
L3619L
sV\u733f
p4728
L3620L
sV\u98da
p4729
L3621L
sV\u75f1
p4730
L3622L
sV\u8e7c
p4731
L3623L
sV\u9ab8
p4732
L3624L
sV\u9e8b
p4733
L3625L
sV\u7898
p4734
L3626L
sV\u949c
p4735
L3627L
sV
p4736
L3628L
s(dp4737
L0L
g1
sL1L
g2
sL2L
g3
sL3L
g1111
sL4L
g1112
sL5L
g1113
sL6L
g1114
sL7L
g1115
sL8L
g1116
sL9L
g1117
sL10L
g1118
sL11L
g1119
sL12L
g1120
sL13L
g1121
sL14L
g1122
sL15L
g1123
sL16L
g1124
sL17L
g1125
sL18L
g1126
sL19L
g1127
sL20L
g1128
sL21L
g1129
sL22L
g1130
sL23L
g1131
sL24L
g1132
sL25L
g1133
sL26L
g1134
sL27L
g1135
sL28L
g1136
sL29L
g1137
sL30L
g1138
sL31L
g1139
sL32L
g1140
sL33L
g1141
sL34L
g1142
sL35L
g1143
sL36L
g1144
sL37L
g1145
sL38L
g1146
sL39L
g1147
sL40L
g1148
sL41L
g1149
sL42L
g1150
sL43L
g1151
sL44L
g1152
sL45L
g1153
sL46L
g1154
sL47L
g1155
sL48L
g1156
sL49L
g1157
sL50L
g1158
sL51L
g1159
sL52L
g1160
sL53L
g1161
sL54L
g1162
sL55L
g1163
sL56L
g1164
sL57L
g1165
sL58L
g1166
sL59L
g1167
sL60L
g1168
sL61L
g1169
sL62L
g1170
sL63L
g1171
sL64L
g1172
sL65L
g1173
sL66L
g1174
sL67L
g1175
sL68L
g1176
sL69L
g1177
sL70L
g1178
sL71L
g1179
sL72L
g1180
sL73L
g1181
sL74L
g1182
sL75L
g1183
sL76L
g1184
sL77L
g1185
sL78L
g1186
sL79L
g1187
sL80L
g1188
sL81L
g1189
sL82L
g1190
sL83L
g1191
sL84L
g1192
sL85L
g1193
sL86L
g1194
sL87L
g1195
sL88L
g1196
sL89L
g1197
sL90L
g1198
sL91L
g1199
sL92L
g1200
sL93L
g1201
sL94L
g1202
sL95L
g1203
sL96L
g1204
sL97L
g1205
sL98L
g1206
sL99L
g1207
sL100L
g1208
sL101L
g1209
sL102L
g1210
sL103L
g1211
sL104L
g1212
sL105L
g1213
sL106L
g1214
sL107L
g1215
sL108L
g1216
sL109L
g1217
sL110L
g1218
sL111L
g1219
sL112L
g1220
sL113L
g1221
sL114L
g1222
sL115L
g1223
sL116L
g1224
sL117L
g1225
sL118L
g1226
sL119L
g1227
sL120L
g1228
sL121L
g1229
sL122L
g1230
sL123L
g1231
sL124L
g1232
sL125L
g1233
sL126L
g1234
sL127L
g1235
sL128L
g1236
sL129L
g1237
sL130L
g1238
sL131L
g1239
sL132L
g1240
sL133L
g1241
sL134L
g1242
sL135L
g1243
sL136L
g1244
sL137L
g1245
sL138L
g1246
sL139L
g1247
sL140L
g1248
sL141L
g1249
sL142L
g1250
sL143L
g1251
sL144L
g1252
sL145L
g1253
sL146L
g1254
sL147L
g1255
sL148L
g1256
sL149L
g1257
sL150L
g1258
sL151L
g1259
sL152L
g1260
sL153L
g1261
sL154L
g1262
sL155L
g1263
sL156L
g1264
sL157L
g1265
sL158L
g1266
sL159L
g1267
sL160L
g1268
sL161L
g1269
sL162L
g1270
sL163L
g1271
sL164L
g1272
sL165L
g1273
sL166L
g1274
sL167L
g1275
sL168L
g1276
sL169L
g1277
sL170L
g1278
sL171L
g1279
sL172L
g1280
sL173L
g1281
sL174L
g1282
sL175L
g1283
sL176L
g1284
sL177L
g1285
sL178L
g1286
sL179L
g1287
sL180L
g1288
sL181L
g1289
sL182L
g1290
sL183L
g1291
sL184L
g1292
sL185L
g1293
sL186L
g1294
sL187L
g1295
sL188L
g1296
sL189L
g1297
sL190L
g1298
sL191L
g1299
sL192L
g1300
sL193L
g1301
sL194L
g1302
sL195L
g1303
sL196L
g1304
sL197L
g1305
sL198L
g1306
sL199L
g1307
sL200L
g1308
sL201L
g1309
sL202L
g1310
sL203L
g1311
sL204L
g1312
sL205L
g1313
sL206L
g1314
sL207L
g1315
sL208L
g1316
sL209L
g1317
sL210L
g1318
sL211L
g1319
sL212L
g1320
sL213L
g1321
sL214L
g1322
sL215L
g1323
sL216L
g1324
sL217L
g1325
sL218L
g1326
sL219L
g1327
sL220L
g1328
sL221L
g1329
sL222L
g1330
sL223L
g1331
sL224L
g1332
sL225L
g1333
sL226L
g1334
sL227L
g1335
sL228L
g1336
sL229L
g1337
sL230L
g1338
sL231L
g1339
sL232L
g1340
sL233L
g1341
sL234L
g1342
sL235L
g1343
sL236L
g1344
sL237L
g1345
sL238L
g1346
sL239L
g1347
sL240L
g1348
sL241L
g1349
sL242L
g1350
sL243L
g1351
sL244L
g1352
sL245L
g1353
sL246L
g1354
sL247L
g1355
sL248L
g1356
sL249L
g1357
sL250L
g1358
sL251L
g1359
sL252L
g1360
sL253L
g1361
sL254L
g1362
sL255L
g1363
sL256L
g1364
sL257L
g1365
sL258L
g1366
sL259L
g1367
sL260L
g1368
sL261L
g1369
sL262L
g1370
sL263L
g1371
sL264L
g1372
sL265L
g1373
sL266L
g1374
sL267L
g1375
sL268L
g1376
sL269L
g1377
sL270L
g1378
sL271L
g1379
sL272L
g1380
sL273L
g1381
sL274L
g1382
sL275L
g1383
sL276L
g1384
sL277L
g1385
sL278L
g1386
sL279L
g1387
sL280L
g1388
sL281L
g1389
sL282L
g1390
sL283L
g1391
sL284L
g1392
sL285L
g1393
sL286L
g1394
sL287L
g1395
sL288L
g1396
sL289L
g1397
sL290L
g1398
sL291L
g1399
sL292L
g1400
sL293L
g1401
sL294L
g1402
sL295L
g1403
sL296L
g1404
sL297L
g1405
sL298L
g1406
sL299L
g1407
sL300L
g1408
sL301L
g1409
sL302L
g1410
sL303L
g1411
sL304L
g1412
sL305L
g1413
sL306L
g1414
sL307L
g1415
sL308L
g1416
sL309L
g1417
sL310L
g1418
sL311L
g1419
sL312L
g1420
sL313L
g1421
sL314L
g1422
sL315L
g1423
sL316L
g1424
sL317L
g1425
sL318L
g1426
sL319L
g1427
sL320L
g1428
sL321L
g1429
sL322L
g1430
sL323L
g1431
sL324L
g1432
sL325L
g1433
sL326L
g1434
sL327L
g1435
sL328L
g1436
sL329L
g1437
sL330L
g1438
sL331L
g1439
sL332L
g1440
sL333L
g1441
sL334L
g1442
sL335L
g1443
sL336L
g1444
sL337L
g1445
sL338L
g1446
sL339L
g1447
sL340L
g1448
sL341L
g1449
sL342L
g1450
sL343L
g1451
sL344L
g1452
sL345L
g1453
sL346L
g1454
sL347L
g1455
sL348L
g1456
sL349L
g1457
sL350L
g1458
sL351L
g1459
sL352L
g1460
sL353L
g1461
sL354L
g1462
sL355L
g1463
sL356L
g1464
sL357L
g1465
sL358L
g1466
sL359L
g1467
sL360L
g1468
sL361L
g1469
sL362L
g1470
sL363L
g1471
sL364L
g1472
sL365L
g1473
sL366L
g1474
sL367L
g1475
sL368L
g1476
sL369L
g1477
sL370L
g1478
sL371L
g1479
sL372L
g1480
sL373L
g1481
sL374L
g1482
sL375L
g1483
sL376L
g1484
sL377L
g1485
sL378L
g1486
sL379L
g1487
sL380L
g1488
sL381L
g1489
sL382L
g1490
sL383L
g1491
sL384L
g1492
sL385L
g1493
sL386L
g1494
sL387L
g1495
sL388L
g1496
sL389L
g1497
sL390L
g1498
sL391L
g1499
sL392L
g1500
sL393L
g1501
sL394L
g1502
sL395L
g1503
sL396L
g1504
sL397L
g1505
sL398L
g1506
sL399L
g1507
sL400L
g1508
sL401L
g1509
sL402L
g1510
sL403L
g1511
sL404L
g1512
sL405L
g1513
sL406L
g1514
sL407L
g1515
sL408L
g1516
sL409L
g1517
sL410L
g1518
sL411L
g1519
sL412L
g1520
sL413L
g1521
sL414L
g1522
sL415L
g1523
sL416L
g1524
sL417L
g1525
sL418L
g1526
sL419L
g1527
sL420L
g1528
sL421L
g1529
sL422L
g1530
sL423L
g1531
sL424L
g1532
sL425L
g1533
sL426L
g1534
sL427L
g1535
sL428L
g1536
sL429L
g1537
sL430L
g1538
sL431L
g1539
sL432L
g1540
sL433L
g1541
sL434L
g1542
sL435L
g1543
sL436L
g1544
sL437L
g1545
sL438L
g1546
sL439L
g1547
sL440L
g1548
sL441L
g1549
sL442L
g1550
sL443L
g1551
sL444L
g1552
sL445L
g1553
sL446L
g1554
sL447L
g1555
sL448L
g1556
sL449L
g1557
sL450L
g1558
sL451L
g1559
sL452L
g1560
sL453L
g1561
sL454L
g1562
sL455L
g1563
sL456L
g1564
sL457L
g1565
sL458L
g1566
sL459L
g1567
sL460L
g1568
sL461L
g1569
sL462L
g1570
sL463L
g1571
sL464L
g1572
sL465L
g1573
sL466L
g1574
sL467L
g1575
sL468L
g1576
sL469L
g1577
sL470L
g1578
sL471L
g1579
sL472L
g1580
sL473L
g1581
sL474L
g1582
sL475L
g1583
sL476L
g1584
sL477L
g1585
sL478L
g1586
sL479L
g1587
sL480L
g1588
sL481L
g1589
sL482L
g1590
sL483L
g1591
sL484L
g1592
sL485L
g1593
sL486L
g1594
sL487L
g1595
sL488L
g1596
sL489L
g1597
sL490L
g1598
sL491L
g1599
sL492L
g1600
sL493L
g1601
sL494L
g1602
sL495L
g1603
sL496L
g1604
sL497L
g1605
sL498L
g1606
sL499L
g1607
sL500L
g1608
sL501L
g1609
sL502L
g1610
sL503L
g1611
sL504L
g1612
sL505L
g1613
sL506L
g1614
sL507L
g1615
sL508L
g1616
sL509L
g1617
sL510L
g1618
sL511L
g1619
sL512L
g1620
sL513L
g1621
sL514L
g1622
sL515L
g1623
sL516L
g1624
sL517L
g1625
sL518L
g1626
sL519L
g1627
sL520L
g1628
sL521L
g1629
sL522L
g1630
sL523L
g1631
sL524L
g1632
sL525L
g1633
sL526L
g1634
sL527L
g1635
sL528L
g1636
sL529L
g1637
sL530L
g1638
sL531L
g1639
sL532L
g1640
sL533L
g1641
sL534L
g1642
sL535L
g1643
sL536L
g1644
sL537L
g1645
sL538L
g1646
sL539L
g1647
sL540L
g1648
sL541L
g1649
sL542L
g1650
sL543L
g1651
sL544L
g1652
sL545L
g1653
sL546L
g1654
sL547L
g1655
sL548L
g1656
sL549L
g1657
sL550L
g1658
sL551L
g1659
sL552L
g1660
sL553L
g1661
sL554L
g1662
sL555L
g1663
sL556L
g1664
sL557L
g1665
sL558L
g1666
sL559L
g1667
sL560L
g1668
sL561L
g1669
sL562L
g1670
sL563L
g1671
sL564L
g1672
sL565L
g1673
sL566L
g1674
sL567L
g1675
sL568L
g1676
sL569L
g1677
sL570L
g1678
sL571L
g1679
sL572L
g1680
sL573L
g1681
sL574L
g1682
sL575L
g1683
sL576L
g1684
sL577L
g1685
sL578L
g1686
sL579L
g1687
sL580L
g1688
sL581L
g1689
sL582L
g1690
sL583L
g1691
sL584L
g1692
sL585L
g1693
sL586L
g1694
sL587L
g1695
sL588L
g1696
sL589L
g1697
sL590L
g1698
sL591L
g1699
sL592L
g1700
sL593L
g1701
sL594L
g1702
sL595L
g1703
sL596L
g1704
sL597L
g1705
sL598L
g1706
sL599L
g1707
sL600L
g1708
sL601L
g1709
sL602L
g1710
sL603L
g1711
sL604L
g1712
sL605L
g1713
sL606L
g1714
sL607L
g1715
sL608L
g1716
sL609L
g1717
sL610L
g1718
sL611L
g1719
sL612L
g1720
sL613L
g1721
sL614L
g1722
sL615L
g1723
sL616L
g1724
sL617L
g1725
sL618L
g1726
sL619L
g1727
sL620L
g1728
sL621L
g1729
sL622L
g1730
sL623L
g1731
sL624L
g1732
sL625L
g1733
sL626L
g1734
sL627L
g1735
sL628L
g1736
sL629L
g1737
sL630L
g1738
sL631L
g1739
sL632L
g1740
sL633L
g1741
sL634L
g1742
sL635L
g1743
sL636L
g1744
sL637L
g1745
sL638L
g1746
sL639L
g1747
sL640L
g1748
sL641L
g1749
sL642L
g1750
sL643L
g1751
sL644L
g1752
sL645L
g1753
sL646L
g1754
sL647L
g1755
sL648L
g1756
sL649L
g1757
sL650L
g1758
sL651L
g1759
sL652L
g1760
sL653L
g1761
sL654L
g1762
sL655L
g1763
sL656L
g1764
sL657L
g1765
sL658L
g1766
sL659L
g1767
sL660L
g1768
sL661L
g1769
sL662L
g1770
sL663L
g1771
sL664L
g1772
sL665L
g1773
sL666L
g1774
sL667L
g1775
sL668L
g1776
sL669L
g1777
sL670L
g1778
sL671L
g1779
sL672L
g1780
sL673L
g1781
sL674L
g1782
sL675L
g1783
sL676L
g1784
sL677L
g1785
sL678L
g1786
sL679L
g1787
sL680L
g1788
sL681L
g1789
sL682L
g1790
sL683L
g1791
sL684L
g1792
sL685L
g1793
sL686L
g1794
sL687L
g1795
sL688L
g1796
sL689L
g1797
sL690L
g1798
sL691L
g1799
sL692L
g1800
sL693L
g1801
sL694L
g1802
sL695L
g1803
sL696L
g1804
sL697L
g1805
sL698L
g1806
sL699L
g1807
sL700L
g1808
sL701L
g1809
sL702L
g1810
sL703L
g1811
sL704L
g1812
sL705L
g1813
sL706L
g1814
sL707L
g1815
sL708L
g1816
sL709L
g1817
sL710L
g1818
sL711L
g1819
sL712L
g1820
sL713L
g1821
sL714L
g1822
sL715L
g1823
sL716L
g1824
sL717L
g1825
sL718L
g1826
sL719L
g1827
sL720L
g1828
sL721L
g1829
sL722L
g1830
sL723L
g1831
sL724L
g1832
sL725L
g1833
sL726L
g1834
sL727L
g1835
sL728L
g1836
sL729L
g1837
sL730L
g1838
sL731L
g1839
sL732L
g1840
sL733L
g1841
sL734L
g1842
sL735L
g1843
sL736L
g1844
sL737L
g1845
sL738L
g1846
sL739L
g1847
sL740L
g1848
sL741L
g1849
sL742L
g1850
sL743L
g1851
sL744L
g1852
sL745L
g1853
sL746L
g1854
sL747L
g1855
sL748L
g1856
sL749L
g1857
sL750L
g1858
sL751L
g1859
sL752L
g1860
sL753L
g1861
sL754L
g1862
sL755L
g1863
sL756L
g1864
sL757L
g1865
sL758L
g1866
sL759L
g1867
sL760L
g1868
sL761L
g1869
sL762L
g1870
sL763L
g1871
sL764L
g1872
sL765L
g1873
sL766L
g1874
sL767L
g1875
sL768L
g1876
sL769L
g1877
sL770L
g1878
sL771L
g1879
sL772L
g1880
sL773L
g1881
sL774L
g1882
sL775L
g1883
sL776L
g1884
sL777L
g1885
sL778L
g1886
sL779L
g1887
sL780L
g1888
sL781L
g1889
sL782L
g1890
sL783L
g1891
sL784L
g1892
sL785L
g1893
sL786L
g1894
sL787L
g1895
sL788L
g1896
sL789L
g1897
sL790L
g1898
sL791L
g1899
sL792L
g1900
sL793L
g1901
sL794L
g1902
sL795L
g1903
sL796L
g1904
sL797L
g1905
sL798L
g1906
sL799L
g1907
sL800L
g1908
sL801L
g1909
sL802L
g1910
sL803L
g1911
sL804L
g1912
sL805L
g1913
sL806L
g1914
sL807L
g1915
sL808L
g1916
sL809L
g1917
sL810L
g1918
sL811L
g1919
sL812L
g1920
sL813L
g1921
sL814L
g1922
sL815L
g1923
sL816L
g1924
sL817L
g1925
sL818L
g1926
sL819L
g1927
sL820L
g1928
sL821L
g1929
sL822L
g1930
sL823L
g1931
sL824L
g1932
sL825L
g1933
sL826L
g1934
sL827L
g1935
sL828L
g1936
sL829L
g1937
sL830L
g1938
sL831L
g1939
sL832L
g1940
sL833L
g1941
sL834L
g1942
sL835L
g1943
sL836L
g1944
sL837L
g1945
sL838L
g1946
sL839L
g1947
sL840L
g1948
sL841L
g1949
sL842L
g1950
sL843L
g1951
sL844L
g1952
sL845L
g1953
sL846L
g1954
sL847L
g1955
sL848L
g1956
sL849L
g1957
sL850L
g1958
sL851L
g1959
sL852L
g1960
sL853L
g1961
sL854L
g1962
sL855L
g1963
sL856L
g1964
sL857L
g1965
sL858L
g1966
sL859L
g1967
sL860L
g1968
sL861L
g1969
sL862L
g1970
sL863L
g1971
sL864L
g1972
sL865L
g1973
sL866L
g1974
sL867L
g1975
sL868L
g1976
sL869L
g1977
sL870L
g1978
sL871L
g1979
sL872L
g1980
sL873L
g1981
sL874L
g1982
sL875L
g1983
sL876L
g1984
sL877L
g1985
sL878L
g1986
sL879L
g1987
sL880L
g1988
sL881L
g1989
sL882L
g1990
sL883L
g1991
sL884L
g1992
sL885L
g1993
sL886L
g1994
sL887L
g1995
sL888L
g1996
sL889L
g1997
sL890L
g1998
sL891L
g1999
sL892L
g2000
sL893L
g2001
sL894L
g2002
sL895L
g2003
sL896L
g2004
sL897L
g2005
sL898L
g2006
sL899L
g2007
sL900L
g2008
sL901L
g2009
sL902L
g2010
sL903L
g2011
sL904L
g2012
sL905L
g2013
sL906L
g2014
sL907L
g2015
sL908L
g2016
sL909L
g2017
sL910L
g2018
sL911L
g2019
sL912L
g2020
sL913L
g2021
sL914L
g2022
sL915L
g2023
sL916L
g2024
sL917L
g2025
sL918L
g2026
sL919L
g2027
sL920L
g2028
sL921L
g2029
sL922L
g2030
sL923L
g2031
sL924L
g2032
sL925L
g2033
sL926L
g2034
sL927L
g2035
sL928L
g2036
sL929L
g2037
sL930L
g2038
sL931L
g2039
sL932L
g2040
sL933L
g2041
sL934L
g2042
sL935L
g2043
sL936L
g2044
sL937L
g2045
sL938L
g2046
sL939L
g2047
sL940L
g2048
sL941L
g2049
sL942L
g2050
sL943L
g2051
sL944L
g2052
sL945L
g2053
sL946L
g2054
sL947L
g2055
sL948L
g2056
sL949L
g2057
sL950L
g2058
sL951L
g2059
sL952L
g2060
sL953L
g2061
sL954L
g2062
sL955L
g2063
sL956L
g2064
sL957L
g2065
sL958L
g2066
sL959L
g2067
sL960L
g2068
sL961L
g2069
sL962L
g2070
sL963L
g2071
sL964L
g2072
sL965L
g2073
sL966L
g2074
sL967L
g2075
sL968L
g2076
sL969L
g2077
sL970L
g2078
sL971L
g2079
sL972L
g2080
sL973L
g2081
sL974L
g2082
sL975L
g2083
sL976L
g2084
sL977L
g2085
sL978L
g2086
sL979L
g2087
sL980L
g2088
sL981L
g2089
sL982L
g2090
sL983L
g2091
sL984L
g2092
sL985L
g2093
sL986L
g2094
sL987L
g2095
sL988L
g2096
sL989L
g2097
sL990L
g2098
sL991L
g2099
sL992L
g2100
sL993L
g2101
sL994L
g2102
sL995L
g2103
sL996L
g2104
sL997L
g2105
sL998L
g2106
sL999L
g2107
sL1000L
g2108
sL1001L
g2109
sL1002L
g2110
sL1003L
g2111
sL1004L
g2112
sL1005L
g2113
sL1006L
g2114
sL1007L
g2115
sL1008L
g2116
sL1009L
g2117
sL1010L
g2118
sL1011L
g2119
sL1012L
g2120
sL1013L
g2121
sL1014L
g2122
sL1015L
g2123
sL1016L
g2124
sL1017L
g2125
sL1018L
g2126
sL1019L
g2127
sL1020L
g2128
sL1021L
g2129
sL1022L
g2130
sL1023L
g2131
sL1024L
g2132
sL1025L
g2133
sL1026L
g2134
sL1027L
g2135
sL1028L
g2136
sL1029L
g2137
sL1030L
g2138
sL1031L
g2139
sL1032L
g2140
sL1033L
g2141
sL1034L
g2142
sL1035L
g2143
sL1036L
g2144
sL1037L
g2145
sL1038L
g2146
sL1039L
g2147
sL1040L
g2148
sL1041L
g2149
sL1042L
g2150
sL1043L
g2151
sL1044L
g2152
sL1045L
g2153
sL1046L
g2154
sL1047L
g2155
sL1048L
g2156
sL1049L
g2157
sL1050L
g2158
sL1051L
g2159
sL1052L
g2160
sL1053L
g2161
sL1054L
g2162
sL1055L
g2163
sL1056L
g2164
sL1057L
g2165
sL1058L
g2166
sL1059L
g2167
sL1060L
g2168
sL1061L
g2169
sL1062L
g2170
sL1063L
g2171
sL1064L
g2172
sL1065L
g2173
sL1066L
g2174
sL1067L
g2175
sL1068L
g2176
sL1069L
g2177
sL1070L
g2178
sL1071L
g2179
sL1072L
g2180
sL1073L
g2181
sL1074L
g2182
sL1075L
g2183
sL1076L
g2184
sL1077L
g2185
sL1078L
g2186
sL1079L
g2187
sL1080L
g2188
sL1081L
g2189
sL1082L
g2190
sL1083L
g2191
sL1084L
g2192
sL1085L
g2193
sL1086L
g2194
sL1087L
g2195
sL1088L
g2196
sL1089L
g2197
sL1090L
g2198
sL1091L
g2199
sL1092L
g2200
sL1093L
g2201
sL1094L
g2202
sL1095L
g2203
sL1096L
g2204
sL1097L
g2205
sL1098L
g2206
sL1099L
g2207
sL1100L
g2208
sL1101L
g2209
sL1102L
g2210
sL1103L
g2211
sL1104L
g2212
sL1105L
g2213
sL1106L
g2214
sL1107L
g2215
sL1108L
g2216
sL1109L
g2217
sL1110L
g2218
sL1111L
g2219
sL1112L
g2220
sL1113L
g2221
sL1114L
g2222
sL1115L
g2223
sL1116L
g2224
sL1117L
g2225
sL1118L
g2226
sL1119L
g2227
sL1120L
g2228
sL1121L
g2229
sL1122L
g2230
sL1123L
g2231
sL1124L
g2232
sL1125L
g2233
sL1126L
g2234
sL1127L
g2235
sL1128L
g2236
sL1129L
g2237
sL1130L
g2238
sL1131L
g2239
sL1132L
g2240
sL1133L
g2241
sL1134L
g2242
sL1135L
g2243
sL1136L
g2244
sL1137L
g2245
sL1138L
g2246
sL1139L
g2247
sL1140L
g2248
sL1141L
g2249
sL1142L
g2250
sL1143L
g2251
sL1144L
g2252
sL1145L
g2253
sL1146L
g2254
sL1147L
g2255
sL1148L
g2256
sL1149L
g2257
sL1150L
g2258
sL1151L
g2259
sL1152L
g2260
sL1153L
g2261
sL1154L
g2262
sL1155L
g2263
sL1156L
g2264
sL1157L
g2265
sL1158L
g2266
sL1159L
g2267
sL1160L
g2268
sL1161L
g2269
sL1162L
g2270
sL1163L
g2271
sL1164L
g2272
sL1165L
g2273
sL1166L
g2274
sL1167L
g2275
sL1168L
g2276
sL1169L
g2277
sL1170L
g2278
sL1171L
g2279
sL1172L
g2280
sL1173L
g2281
sL1174L
g2282
sL1175L
g2283
sL1176L
g2284
sL1177L
g2285
sL1178L
g2286
sL1179L
g2287
sL1180L
g2288
sL1181L
g2289
sL1182L
g2290
sL1183L
g2291
sL1184L
g2292
sL1185L
g2293
sL1186L
g2294
sL1187L
g2295
sL1188L
g2296
sL1189L
g2297
sL1190L
g2298
sL1191L
g2299
sL1192L
g2300
sL1193L
g2301
sL1194L
g2302
sL1195L
g2303
sL1196L
g2304
sL1197L
g2305
sL1198L
g2306
sL1199L
g2307
sL1200L
g2308
sL1201L
g2309
sL1202L
g2310
sL1203L
g2311
sL1204L
g2312
sL1205L
g2313
sL1206L
g2314
sL1207L
g2315
sL1208L
g2316
sL1209L
g2317
sL1210L
g2318
sL1211L
g2319
sL1212L
g2320
sL1213L
g2321
sL1214L
g2322
sL1215L
g2323
sL1216L
g2324
sL1217L
g2325
sL1218L
g2326
sL1219L
g2327
sL1220L
g2328
sL1221L
g2329
sL1222L
g2330
sL1223L
g2331
sL1224L
g2332
sL1225L
g2333
sL1226L
g2334
sL1227L
g2335
sL1228L
g2336
sL1229L
g2337
sL1230L
g2338
sL1231L
g2339
sL1232L
g2340
sL1233L
g2341
sL1234L
g2342
sL1235L
g2343
sL1236L
g2344
sL1237L
g2345
sL1238L
g2346
sL1239L
g2347
sL1240L
g2348
sL1241L
g2349
sL1242L
g2350
sL1243L
g2351
sL1244L
g2352
sL1245L
g2353
sL1246L
g2354
sL1247L
g2355
sL1248L
g2356
sL1249L
g2357
sL1250L
g2358
sL1251L
g2359
sL1252L
g2360
sL1253L
g2361
sL1254L
g2362
sL1255L
g2363
sL1256L
g2364
sL1257L
g2365
sL1258L
g2366
sL1259L
g2367
sL1260L
g2368
sL1261L
g2369
sL1262L
g2370
sL1263L
g2371
sL1264L
g2372
sL1265L
g2373
sL1266L
g2374
sL1267L
g2375
sL1268L
g2376
sL1269L
g2377
sL1270L
g2378
sL1271L
g2379
sL1272L
g2380
sL1273L
g2381
sL1274L
g2382
sL1275L
g2383
sL1276L
g2384
sL1277L
g2385
sL1278L
g2386
sL1279L
g2387
sL1280L
g2388
sL1281L
g2389
sL1282L
g2390
sL1283L
g2391
sL1284L
g2392
sL1285L
g2393
sL1286L
g2394
sL1287L
g2395
sL1288L
g2396
sL1289L
g2397
sL1290L
g2398
sL1291L
g2399
sL1292L
g2400
sL1293L
g2401
sL1294L
g2402
sL1295L
g2403
sL1296L
g2404
sL1297L
g2405
sL1298L
g2406
sL1299L
g2407
sL1300L
g2408
sL1301L
g2409
sL1302L
g2410
sL1303L
g2411
sL1304L
g2412
sL1305L
g2413
sL1306L
g2414
sL1307L
g2415
sL1308L
g2416
sL1309L
g2417
sL1310L
g2418
sL1311L
g2419
sL1312L
g2420
sL1313L
g2421
sL1314L
g2422
sL1315L
g2423
sL1316L
g2424
sL1317L
g2425
sL1318L
g2426
sL1319L
g2427
sL1320L
g2428
sL1321L
g2429
sL1322L
g2430
sL1323L
g2431
sL1324L
g2432
sL1325L
g2433
sL1326L
g2434
sL1327L
g2435
sL1328L
g2436
sL1329L
g2437
sL1330L
g2438
sL1331L
g2439
sL1332L
g2440
sL1333L
g2441
sL1334L
g2442
sL1335L
g2443
sL1336L
g2444
sL1337L
g2445
sL1338L
g2446
sL1339L
g2447
sL1340L
g2448
sL1341L
g2449
sL1342L
g2450
sL1343L
g2451
sL1344L
g2452
sL1345L
g2453
sL1346L
g2454
sL1347L
g2455
sL1348L
g2456
sL1349L
g2457
sL1350L
g2458
sL1351L
g2459
sL1352L
g2460
sL1353L
g2461
sL1354L
g2462
sL1355L
g2463
sL1356L
g2464
sL1357L
g2465
sL1358L
g2466
sL1359L
g2467
sL1360L
g2468
sL1361L
g2469
sL1362L
g2470
sL1363L
g2471
sL1364L
g2472
sL1365L
g2473
sL1366L
g2474
sL1367L
g2475
sL1368L
g2476
sL1369L
g2477
sL1370L
g2478
sL1371L
g2479
sL1372L
g2480
sL1373L
g2481
sL1374L
g2482
sL1375L
g2483
sL1376L
g2484
sL1377L
g2485
sL1378L
g2486
sL1379L
g2487
sL1380L
g2488
sL1381L
g2489
sL1382L
g2490
sL1383L
g2491
sL1384L
g2492
sL1385L
g2493
sL1386L
g2494
sL1387L
g2495
sL1388L
g2496
sL1389L
g2497
sL1390L
g2498
sL1391L
g2499
sL1392L
g2500
sL1393L
g2501
sL1394L
g2502
sL1395L
g2503
sL1396L
g2504
sL1397L
g2505
sL1398L
g2506
sL1399L
g2507
sL1400L
g2508
sL1401L
g2509
sL1402L
g2510
sL1403L
g2511
sL1404L
g2512
sL1405L
g2513
sL1406L
g2514
sL1407L
g2515
sL1408L
g2516
sL1409L
g2517
sL1410L
g2518
sL1411L
g2519
sL1412L
g2520
sL1413L
g2521
sL1414L
g2522
sL1415L
g2523
sL1416L
g2524
sL1417L
g2525
sL1418L
g2526
sL1419L
g2527
sL1420L
g2528
sL1421L
g2529
sL1422L
g2530
sL1423L
g2531
sL1424L
g2532
sL1425L
g2533
sL1426L
g2534
sL1427L
g2535
sL1428L
g2536
sL1429L
g2537
sL1430L
g2538
sL1431L
g2539
sL1432L
g2540
sL1433L
g2541
sL1434L
g2542
sL1435L
g2543
sL1436L
g2544
sL1437L
g2545
sL1438L
g2546
sL1439L
g2547
sL1440L
g2548
sL1441L
g2549
sL1442L
g2550
sL1443L
g2551
sL1444L
g2552
sL1445L
g2553
sL1446L
g2554
sL1447L
g2555
sL1448L
g2556
sL1449L
g2557
sL1450L
g2558
sL1451L
g2559
sL1452L
g2560
sL1453L
g2561
sL1454L
g2562
sL1455L
g2563
sL1456L
g2564
sL1457L
g2565
sL1458L
g2566
sL1459L
g2567
sL1460L
g2568
sL1461L
g2569
sL1462L
g2570
sL1463L
g2571
sL1464L
g2572
sL1465L
g2573
sL1466L
g2574
sL1467L
g2575
sL1468L
g2576
sL1469L
g2577
sL1470L
g2578
sL1471L
g2579
sL1472L
g2580
sL1473L
g2581
sL1474L
g2582
sL1475L
g2583
sL1476L
g2584
sL1477L
g2585
sL1478L
g2586
sL1479L
g2587
sL1480L
g2588
sL1481L
g2589
sL1482L
g2590
sL1483L
g2591
sL1484L
g2592
sL1485L
g2593
sL1486L
g2594
sL1487L
g2595
sL1488L
g2596
sL1489L
g2597
sL1490L
g2598
sL1491L
g2599
sL1492L
g2600
sL1493L
g2601
sL1494L
g2602
sL1495L
g2603
sL1496L
g2604
sL1497L
g2605
sL1498L
g2606
sL1499L
g2607
sL1500L
g2608
sL1501L
g2609
sL1502L
g2610
sL1503L
g2611
sL1504L
g2612
sL1505L
g2613
sL1506L
g2614
sL1507L
g2615
sL1508L
g2616
sL1509L
g2617
sL1510L
g2618
sL1511L
g2619
sL1512L
g2620
sL1513L
g2621
sL1514L
g2622
sL1515L
g2623
sL1516L
g2624
sL1517L
g2625
sL1518L
g2626
sL1519L
g2627
sL1520L
g2628
sL1521L
g2629
sL1522L
g2630
sL1523L
g2631
sL1524L
g2632
sL1525L
g2633
sL1526L
g2634
sL1527L
g2635
sL1528L
g2636
sL1529L
g2637
sL1530L
g2638
sL1531L
g2639
sL1532L
g2640
sL1533L
g2641
sL1534L
g2642
sL1535L
g2643
sL1536L
g2644
sL1537L
g2645
sL1538L
g2646
sL1539L
g2647
sL1540L
g2648
sL1541L
g2649
sL1542L
g2650
sL1543L
g2651
sL1544L
g2652
sL1545L
g2653
sL1546L
g2654
sL1547L
g2655
sL1548L
g2656
sL1549L
g2657
sL1550L
g2658
sL1551L
g2659
sL1552L
g2660
sL1553L
g2661
sL1554L
g2662
sL1555L
g2663
sL1556L
g2664
sL1557L
g2665
sL1558L
g2666
sL1559L
g2667
sL1560L
g2668
sL1561L
g2669
sL1562L
g2670
sL1563L
g2671
sL1564L
g2672
sL1565L
g2673
sL1566L
g2674
sL1567L
g2675
sL1568L
g2676
sL1569L
g2677
sL1570L
g2678
sL1571L
g2679
sL1572L
g2680
sL1573L
g2681
sL1574L
g2682
sL1575L
g2683
sL1576L
g2684
sL1577L
g2685
sL1578L
g2686
sL1579L
g2687
sL1580L
g2688
sL1581L
g2689
sL1582L
g2690
sL1583L
g2691
sL1584L
g2692
sL1585L
g2693
sL1586L
g2694
sL1587L
g2695
sL1588L
g2696
sL1589L
g2697
sL1590L
g2698
sL1591L
g2699
sL1592L
g2700
sL1593L
g2701
sL1594L
g2702
sL1595L
g2703
sL1596L
g2704
sL1597L
g2705
sL1598L
g2706
sL1599L
g2707
sL1600L
g2708
sL1601L
g2709
sL1602L
g2710
sL1603L
g2711
sL1604L
g2712
sL1605L
g2713
sL1606L
g2714
sL1607L
g2715
sL1608L
g2716
sL1609L
g2717
sL1610L
g2718
sL1611L
g2719
sL1612L
g2720
sL1613L
g2721
sL1614L
g2722
sL1615L
g2723
sL1616L
g2724
sL1617L
g2725
sL1618L
g2726
sL1619L
g2727
sL1620L
g2728
sL1621L
g2729
sL1622L
g2730
sL1623L
g2731
sL1624L
g2732
sL1625L
g2733
sL1626L
g2734
sL1627L
g2735
sL1628L
g2736
sL1629L
g2737
sL1630L
g2738
sL1631L
g2739
sL1632L
g2740
sL1633L
g2741
sL1634L
g2742
sL1635L
g2743
sL1636L
g2744
sL1637L
g2745
sL1638L
g2746
sL1639L
g2747
sL1640L
g2748
sL1641L
g2749
sL1642L
g2750
sL1643L
g2751
sL1644L
g2752
sL1645L
g2753
sL1646L
g2754
sL1647L
g2755
sL1648L
g2756
sL1649L
g2757
sL1650L
g2758
sL1651L
g2759
sL1652L
g2760
sL1653L
g2761
sL1654L
g2762
sL1655L
g2763
sL1656L
g2764
sL1657L
g2765
sL1658L
g2766
sL1659L
g2767
sL1660L
g2768
sL1661L
g2769
sL1662L
g2770
sL1663L
g2771
sL1664L
g2772
sL1665L
g2773
sL1666L
g2774
sL1667L
g2775
sL1668L
g2776
sL1669L
g2777
sL1670L
g2778
sL1671L
g2779
sL1672L
g2780
sL1673L
g2781
sL1674L
g2782
sL1675L
g2783
sL1676L
g2784
sL1677L
g2785
sL1678L
g2786
sL1679L
g2787
sL1680L
g2788
sL1681L
g2789
sL1682L
g2790
sL1683L
g2791
sL1684L
g2792
sL1685L
g2793
sL1686L
g2794
sL1687L
g2795
sL1688L
g2796
sL1689L
g2797
sL1690L
g2798
sL1691L
g2799
sL1692L
g2800
sL1693L
g2801
sL1694L
g2802
sL1695L
g2803
sL1696L
g2804
sL1697L
g2805
sL1698L
g2806
sL1699L
g2807
sL1700L
g2808
sL1701L
g2809
sL1702L
g2810
sL1703L
g2811
sL1704L
g2812
sL1705L
g2813
sL1706L
g2814
sL1707L
g2815
sL1708L
g2816
sL1709L
g2817
sL1710L
g2818
sL1711L
g2819
sL1712L
g2820
sL1713L
g2821
sL1714L
g2822
sL1715L
g2823
sL1716L
g2824
sL1717L
g2825
sL1718L
g2826
sL1719L
g2827
sL1720L
g2828
sL1721L
g2829
sL1722L
g2830
sL1723L
g2831
sL1724L
g2832
sL1725L
g2833
sL1726L
g2834
sL1727L
g2835
sL1728L
g2836
sL1729L
g2837
sL1730L
g2838
sL1731L
g2839
sL1732L
g2840
sL1733L
g2841
sL1734L
g2842
sL1735L
g2843
sL1736L
g2844
sL1737L
g2845
sL1738L
g2846
sL1739L
g2847
sL1740L
g2848
sL1741L
g2849
sL1742L
g2850
sL1743L
g2851
sL1744L
g2852
sL1745L
g2853
sL1746L
g2854
sL1747L
g2855
sL1748L
g2856
sL1749L
g2857
sL1750L
g2858
sL1751L
g2859
sL1752L
g2860
sL1753L
g2861
sL1754L
g2862
sL1755L
g2863
sL1756L
g2864
sL1757L
g2865
sL1758L
g2866
sL1759L
g2867
sL1760L
g2868
sL1761L
g2869
sL1762L
g2870
sL1763L
g2871
sL1764L
g2872
sL1765L
g2873
sL1766L
g2874
sL1767L
g2875
sL1768L
g2876
sL1769L
g2877
sL1770L
g2878
sL1771L
g2879
sL1772L
g2880
sL1773L
g2881
sL1774L
g2882
sL1775L
g2883
sL1776L
g2884
sL1777L
g2885
sL1778L
g2886
sL1779L
g2887
sL1780L
g2888
sL1781L
g2889
sL1782L
g2890
sL1783L
g2891
sL1784L
g2892
sL1785L
g2893
sL1786L
g2894
sL1787L
g2895
sL1788L
g2896
sL1789L
g2897
sL1790L
g2898
sL1791L
g2899
sL1792L
g2900
sL1793L
g2901
sL1794L
g2902
sL1795L
g2903
sL1796L
g2904
sL1797L
g2905
sL1798L
g2906
sL1799L
g2907
sL1800L
g2908
sL1801L
g2909
sL1802L
g2910
sL1803L
g2911
sL1804L
g2912
sL1805L
g2913
sL1806L
g2914
sL1807L
g2915
sL1808L
g2916
sL1809L
g2917
sL1810L
g2918
sL1811L
g2919
sL1812L
g2920
sL1813L
g2921
sL1814L
g2922
sL1815L
g2923
sL1816L
g2924
sL1817L
g2925
sL1818L
g2926
sL1819L
g2927
sL1820L
g2928
sL1821L
g2929
sL1822L
g2930
sL1823L
g2931
sL1824L
g2932
sL1825L
g2933
sL1826L
g2934
sL1827L
g2935
sL1828L
g2936
sL1829L
g2937
sL1830L
g2938
sL1831L
g2939
sL1832L
g2940
sL1833L
g2941
sL1834L
g2942
sL1835L
g2943
sL1836L
g2944
sL1837L
g2945
sL1838L
g2946
sL1839L
g2947
sL1840L
g2948
sL1841L
g2949
sL1842L
g2950
sL1843L
g2951
sL1844L
g2952
sL1845L
g2953
sL1846L
g2954
sL1847L
g2955
sL1848L
g2956
sL1849L
g2957
sL1850L
g2958
sL1851L
g2959
sL1852L
g2960
sL1853L
g2961
sL1854L
g2962
sL1855L
g2963
sL1856L
g2964
sL1857L
g2965
sL1858L
g2966
sL1859L
g2967
sL1860L
g2968
sL1861L
g2969
sL1862L
g2970
sL1863L
g2971
sL1864L
g2972
sL1865L
g2973
sL1866L
g2974
sL1867L
g2975
sL1868L
g2976
sL1869L
g2977
sL1870L
g2978
sL1871L
g2979
sL1872L
g2980
sL1873L
g2981
sL1874L
g2982
sL1875L
g2983
sL1876L
g2984
sL1877L
g2985
sL1878L
g2986
sL1879L
g2987
sL1880L
g2988
sL1881L
g2989
sL1882L
g2990
sL1883L
g2991
sL1884L
g2992
sL1885L
g2993
sL1886L
g2994
sL1887L
g2995
sL1888L
g2996
sL1889L
g2997
sL1890L
g2998
sL1891L
g2999
sL1892L
g3000
sL1893L
g3001
sL1894L
g3002
sL1895L
g3003
sL1896L
g3004
sL1897L
g3005
sL1898L
g3006
sL1899L
g3007
sL1900L
g3008
sL1901L
g3009
sL1902L
g3010
sL1903L
g3011
sL1904L
g3012
sL1905L
g3013
sL1906L
g3014
sL1907L
g3015
sL1908L
g3016
sL1909L
g3017
sL1910L
g3018
sL1911L
g3019
sL1912L
g3020
sL1913L
g3021
sL1914L
g3022
sL1915L
g3023
sL1916L
g3024
sL1917L
g3025
sL1918L
g3026
sL1919L
g3027
sL1920L
g3028
sL1921L
g3029
sL1922L
g3030
sL1923L
g3031
sL1924L
g3032
sL1925L
g3033
sL1926L
g3034
sL1927L
g3035
sL1928L
g3036
sL1929L
g3037
sL1930L
g3038
sL1931L
g3039
sL1932L
g3040
sL1933L
g3041
sL1934L
g3042
sL1935L
g3043
sL1936L
g3044
sL1937L
g3045
sL1938L
g3046
sL1939L
g3047
sL1940L
g3048
sL1941L
g3049
sL1942L
g3050
sL1943L
g3051
sL1944L
g3052
sL1945L
g3053
sL1946L
g3054
sL1947L
g3055
sL1948L
g3056
sL1949L
g3057
sL1950L
g3058
sL1951L
g3059
sL1952L
g3060
sL1953L
g3061
sL1954L
g3062
sL1955L
g3063
sL1956L
g3064
sL1957L
g3065
sL1958L
g3066
sL1959L
g3067
sL1960L
g3068
sL1961L
g3069
sL1962L
g3070
sL1963L
g3071
sL1964L
g3072
sL1965L
g3073
sL1966L
g3074
sL1967L
g3075
sL1968L
g3076
sL1969L
g3077
sL1970L
g3078
sL1971L
g3079
sL1972L
g3080
sL1973L
g3081
sL1974L
g3082
sL1975L
g3083
sL1976L
g3084
sL1977L
g3085
sL1978L
g3086
sL1979L
g3087
sL1980L
g3088
sL1981L
g3089
sL1982L
g3090
sL1983L
g3091
sL1984L
g3092
sL1985L
g3093
sL1986L
g3094
sL1987L
g3095
sL1988L
g3096
sL1989L
g3097
sL1990L
g3098
sL1991L
g3099
sL1992L
g3100
sL1993L
g3101
sL1994L
g3102
sL1995L
g3103
sL1996L
g3104
sL1997L
g3105
sL1998L
g3106
sL1999L
g3107
sL2000L
g3108
sL2001L
g3109
sL2002L
g3110
sL2003L
g3111
sL2004L
g3112
sL2005L
g3113
sL2006L
g3114
sL2007L
g3115
sL2008L
g3116
sL2009L
g3117
sL2010L
g3118
sL2011L
g3119
sL2012L
g3120
sL2013L
g3121
sL2014L
g3122
sL2015L
g3123
sL2016L
g3124
sL2017L
g3125
sL2018L
g3126
sL2019L
g3127
sL2020L
g3128
sL2021L
g3129
sL2022L
g3130
sL2023L
g3131
sL2024L
g3132
sL2025L
g3133
sL2026L
g3134
sL2027L
g3135
sL2028L
g3136
sL2029L
g3137
sL2030L
g3138
sL2031L
g3139
sL2032L
g3140
sL2033L
g3141
sL2034L
g3142
sL2035L
g3143
sL2036L
g3144
sL2037L
g3145
sL2038L
g3146
sL2039L
g3147
sL2040L
g3148
sL2041L
g3149
sL2042L
g3150
sL2043L
g3151
sL2044L
g3152
sL2045L
g3153
sL2046L
g3154
sL2047L
g3155
sL2048L
g3156
sL2049L
g3157
sL2050L
g3158
sL2051L
g3159
sL2052L
g3160
sL2053L
g3161
sL2054L
g3162
sL2055L
g3163
sL2056L
g3164
sL2057L
g3165
sL2058L
g3166
sL2059L
g3167
sL2060L
g3168
sL2061L
g3169
sL2062L
g3170
sL2063L
g3171
sL2064L
g3172
sL2065L
g3173
sL2066L
g3174
sL2067L
g3175
sL2068L
g3176
sL2069L
g3177
sL2070L
g3178
sL2071L
g3179
sL2072L
g3180
sL2073L
g3181
sL2074L
g3182
sL2075L
g3183
sL2076L
g3184
sL2077L
g3185
sL2078L
g3186
sL2079L
g3187
sL2080L
g3188
sL2081L
g3189
sL2082L
g3190
sL2083L
g3191
sL2084L
g3192
sL2085L
g3193
sL2086L
g3194
sL2087L
g3195
sL2088L
g3196
sL2089L
g3197
sL2090L
g3198
sL2091L
g3199
sL2092L
g3200
sL2093L
g3201
sL2094L
g3202
sL2095L
g3203
sL2096L
g3204
sL2097L
g3205
sL2098L
g3206
sL2099L
g3207
sL2100L
g3208
sL2101L
g3209
sL2102L
g3210
sL2103L
g3211
sL2104L
g3212
sL2105L
g3213
sL2106L
g3214
sL2107L
g3215
sL2108L
g3216
sL2109L
g3217
sL2110L
g3218
sL2111L
g3219
sL2112L
g3220
sL2113L
g3221
sL2114L
g3222
sL2115L
g3223
sL2116L
g3224
sL2117L
g3225
sL2118L
g3226
sL2119L
g3227
sL2120L
g3228
sL2121L
g3229
sL2122L
g3230
sL2123L
g3231
sL2124L
g3232
sL2125L
g3233
sL2126L
g3234
sL2127L
g3235
sL2128L
g3236
sL2129L
g3237
sL2130L
g3238
sL2131L
g3239
sL2132L
g3240
sL2133L
g3241
sL2134L
g3242
sL2135L
g3243
sL2136L
g3244
sL2137L
g3245
sL2138L
g3246
sL2139L
g3247
sL2140L
g3248
sL2141L
g3249
sL2142L
g3250
sL2143L
g3251
sL2144L
g3252
sL2145L
g3253
sL2146L
g3254
sL2147L
g3255
sL2148L
g3256
sL2149L
g3257
sL2150L
g3258
sL2151L
g3259
sL2152L
g3260
sL2153L
g3261
sL2154L
g3262
sL2155L
g3263
sL2156L
g3264
sL2157L
g3265
sL2158L
g3266
sL2159L
g3267
sL2160L
g3268
sL2161L
g3269
sL2162L
g3270
sL2163L
g3271
sL2164L
g3272
sL2165L
g3273
sL2166L
g3274
sL2167L
g3275
sL2168L
g3276
sL2169L
g3277
sL2170L
g3278
sL2171L
g3279
sL2172L
g3280
sL2173L
g3281
sL2174L
g3282
sL2175L
g3283
sL2176L
g3284
sL2177L
g3285
sL2178L
g3286
sL2179L
g3287
sL2180L
g3288
sL2181L
g3289
sL2182L
g3290
sL2183L
g3291
sL2184L
g3292
sL2185L
g3293
sL2186L
g3294
sL2187L
g3295
sL2188L
g3296
sL2189L
g3297
sL2190L
g3298
sL2191L
g3299
sL2192L
g3300
sL2193L
g3301
sL2194L
g3302
sL2195L
g3303
sL2196L
g3304
sL2197L
g3305
sL2198L
g3306
sL2199L
g3307
sL2200L
g3308
sL2201L
g3309
sL2202L
g3310
sL2203L
g3311
sL2204L
g3312
sL2205L
g3313
sL2206L
g3314
sL2207L
g3315
sL2208L
g3316
sL2209L
g3317
sL2210L
g3318
sL2211L
g3319
sL2212L
g3320
sL2213L
g3321
sL2214L
g3322
sL2215L
g3323
sL2216L
g3324
sL2217L
g3325
sL2218L
g3326
sL2219L
g3327
sL2220L
g3328
sL2221L
g3329
sL2222L
g3330
sL2223L
g3331
sL2224L
g3332
sL2225L
g3333
sL2226L
g3334
sL2227L
g3335
sL2228L
g3336
sL2229L
g3337
sL2230L
g3338
sL2231L
g3339
sL2232L
g3340
sL2233L
g3341
sL2234L
g3342
sL2235L
g3343
sL2236L
g3344
sL2237L
g3345
sL2238L
g3346
sL2239L
g3347
sL2240L
g3348
sL2241L
g3349
sL2242L
g3350
sL2243L
g3351
sL2244L
g3352
sL2245L
g3353
sL2246L
g3354
sL2247L
g3355
sL2248L
g3356
sL2249L
g3357
sL2250L
g3358
sL2251L
g3359
sL2252L
g3360
sL2253L
g3361
sL2254L
g3362
sL2255L
g3363
sL2256L
g3364
sL2257L
g3365
sL2258L
g3366
sL2259L
g3367
sL2260L
g3368
sL2261L
g3369
sL2262L
g3370
sL2263L
g3371
sL2264L
g3372
sL2265L
g3373
sL2266L
g3374
sL2267L
g3375
sL2268L
g3376
sL2269L
g3377
sL2270L
g3378
sL2271L
g3379
sL2272L
g3380
sL2273L
g3381
sL2274L
g3382
sL2275L
g3383
sL2276L
g3384
sL2277L
g3385
sL2278L
g3386
sL2279L
g3387
sL2280L
g3388
sL2281L
g3389
sL2282L
g3390
sL2283L
g3391
sL2284L
g3392
sL2285L
g3393
sL2286L
g3394
sL2287L
g3395
sL2288L
g3396
sL2289L
g3397
sL2290L
g3398
sL2291L
g3399
sL2292L
g3400
sL2293L
g3401
sL2294L
g3402
sL2295L
g3403
sL2296L
g3404
sL2297L
g3405
sL2298L
g3406
sL2299L
g3407
sL2300L
g3408
sL2301L
g3409
sL2302L
g3410
sL2303L
g3411
sL2304L
g3412
sL2305L
g3413
sL2306L
g3414
sL2307L
g3415
sL2308L
g3416
sL2309L
g3417
sL2310L
g3418
sL2311L
g3419
sL2312L
g3420
sL2313L
g3421
sL2314L
g3422
sL2315L
g3423
sL2316L
g3424
sL2317L
g3425
sL2318L
g3426
sL2319L
g3427
sL2320L
g3428
sL2321L
g3429
sL2322L
g3430
sL2323L
g3431
sL2324L
g3432
sL2325L
g3433
sL2326L
g3434
sL2327L
g3435
sL2328L
g3436
sL2329L
g3437
sL2330L
g3438
sL2331L
g3439
sL2332L
g3440
sL2333L
g3441
sL2334L
g3442
sL2335L
g3443
sL2336L
g3444
sL2337L
g3445
sL2338L
g3446
sL2339L
g3447
sL2340L
g3448
sL2341L
g3449
sL2342L
g3450
sL2343L
g3451
sL2344L
g3452
sL2345L
g3453
sL2346L
g3454
sL2347L
g3455
sL2348L
g3456
sL2349L
g3457
sL2350L
g3458
sL2351L
g3459
sL2352L
g3460
sL2353L
g3461
sL2354L
g3462
sL2355L
g3463
sL2356L
g3464
sL2357L
g3465
sL2358L
g3466
sL2359L
g3467
sL2360L
g3468
sL2361L
g3469
sL2362L
g3470
sL2363L
g3471
sL2364L
g3472
sL2365L
g3473
sL2366L
g3474
sL2367L
g3475
sL2368L
g3476
sL2369L
g3477
sL2370L
g3478
sL2371L
g3479
sL2372L
g3480
sL2373L
g3481
sL2374L
g3482
sL2375L
g3483
sL2376L
g3484
sL2377L
g3485
sL2378L
g3486
sL2379L
g3487
sL2380L
g3488
sL2381L
g3489
sL2382L
g3490
sL2383L
g3491
sL2384L
g3492
sL2385L
g3493
sL2386L
g3494
sL2387L
g3495
sL2388L
g3496
sL2389L
g3497
sL2390L
g3498
sL2391L
g3499
sL2392L
g3500
sL2393L
g3501
sL2394L
g3502
sL2395L
g3503
sL2396L
g3504
sL2397L
g3505
sL2398L
g3506
sL2399L
g3507
sL2400L
g3508
sL2401L
g3509
sL2402L
g3510
sL2403L
g3511
sL2404L
g3512
sL2405L
g3513
sL2406L
g3514
sL2407L
g3515
sL2408L
g3516
sL2409L
g3517
sL2410L
g3518
sL2411L
g3519
sL2412L
g3520
sL2413L
g3521
sL2414L
g3522
sL2415L
g3523
sL2416L
g3524
sL2417L
g3525
sL2418L
g3526
sL2419L
g3527
sL2420L
g3528
sL2421L
g3529
sL2422L
g3530
sL2423L
g3531
sL2424L
g3532
sL2425L
g3533
sL2426L
g3534
sL2427L
g3535
sL2428L
g3536
sL2429L
g3537
sL2430L
g3538
sL2431L
g3539
sL2432L
g3540
sL2433L
g3541
sL2434L
g3542
sL2435L
g3543
sL2436L
g3544
sL2437L
g3545
sL2438L
g3546
sL2439L
g3547
sL2440L
g3548
sL2441L
g3549
sL2442L
g3550
sL2443L
g3551
sL2444L
g3552
sL2445L
g3553
sL2446L
g3554
sL2447L
g3555
sL2448L
g3556
sL2449L
g3557
sL2450L
g3558
sL2451L
g3559
sL2452L
g3560
sL2453L
g3561
sL2454L
g3562
sL2455L
g3563
sL2456L
g3564
sL2457L
g3565
sL2458L
g3566
sL2459L
g3567
sL2460L
g3568
sL2461L
g3569
sL2462L
g3570
sL2463L
g3571
sL2464L
g3572
sL2465L
g3573
sL2466L
g3574
sL2467L
g3575
sL2468L
g3576
sL2469L
g3577
sL2470L
g3578
sL2471L
g3579
sL2472L
g3580
sL2473L
g3581
sL2474L
g3582
sL2475L
g3583
sL2476L
g3584
sL2477L
g3585
sL2478L
g3586
sL2479L
g3587
sL2480L
g3588
sL2481L
g3589
sL2482L
g3590
sL2483L
g3591
sL2484L
g3592
sL2485L
g3593
sL2486L
g3594
sL2487L
g3595
sL2488L
g3596
sL2489L
g3597
sL2490L
g3598
sL2491L
g3599
sL2492L
g3600
sL2493L
g3601
sL2494L
g3602
sL2495L
g3603
sL2496L
g3604
sL2497L
g3605
sL2498L
g3606
sL2499L
g3607
sL2500L
g3608
sL2501L
g3609
sL2502L
g3610
sL2503L
g3611
sL2504L
g3612
sL2505L
g3613
sL2506L
g3614
sL2507L
g3615
sL2508L
g3616
sL2509L
g3617
sL2510L
g3618
sL2511L
g3619
sL2512L
g3620
sL2513L
g3621
sL2514L
g3622
sL2515L
g3623
sL2516L
g3624
sL2517L
g3625
sL2518L
g3626
sL2519L
g3627
sL2520L
g3628
sL2521L
g3629
sL2522L
g3630
sL2523L
g3631
sL2524L
g3632
sL2525L
g3633
sL2526L
g3634
sL2527L
g3635
sL2528L
g3636
sL2529L
g3637
sL2530L
g3638
sL2531L
g3639
sL2532L
g3640
sL2533L
g3641
sL2534L
g3642
sL2535L
g3643
sL2536L
g3644
sL2537L
g3645
sL2538L
g3646
sL2539L
g3647
sL2540L
g3648
sL2541L
g3649
sL2542L
g3650
sL2543L
g3651
sL2544L
g3652
sL2545L
g3653
sL2546L
g3654
sL2547L
g3655
sL2548L
g3656
sL2549L
g3657
sL2550L
g3658
sL2551L
g3659
sL2552L
g3660
sL2553L
g3661
sL2554L
g3662
sL2555L
g3663
sL2556L
g3664
sL2557L
g3665
sL2558L
g3666
sL2559L
g3667
sL2560L
g3668
sL2561L
g3669
sL2562L
g3670
sL2563L
g3671
sL2564L
g3672
sL2565L
g3673
sL2566L
g3674
sL2567L
g3675
sL2568L
g3676
sL2569L
g3677
sL2570L
g3678
sL2571L
g3679
sL2572L
g3680
sL2573L
g3681
sL2574L
g3682
sL2575L
g3683
sL2576L
g3684
sL2577L
g3685
sL2578L
g3686
sL2579L
g3687
sL2580L
g3688
sL2581L
g3689
sL2582L
g3690
sL2583L
g3691
sL2584L
g3692
sL2585L
g3693
sL2586L
g3694
sL2587L
g3695
sL2588L
g3696
sL2589L
g3697
sL2590L
g3698
sL2591L
g3699
sL2592L
g3700
sL2593L
g3701
sL2594L
g3702
sL2595L
g3703
sL2596L
g3704
sL2597L
g3705
sL2598L
g3706
sL2599L
g3707
sL2600L
g3708
sL2601L
g3709
sL2602L
g3710
sL2603L
g3711
sL2604L
g3712
sL2605L
g3713
sL2606L
g3714
sL2607L
g3715
sL2608L
g3716
sL2609L
g3717
sL2610L
g3718
sL2611L
g3719
sL2612L
g3720
sL2613L
g3721
sL2614L
g3722
sL2615L
g3723
sL2616L
g3724
sL2617L
g3725
sL2618L
g3726
sL2619L
g3727
sL2620L
g3728
sL2621L
g3729
sL2622L
g3730
sL2623L
g3731
sL2624L
g3732
sL2625L
g3733
sL2626L
g3734
sL2627L
g3735
sL2628L
g3736
sL2629L
g3737
sL2630L
g3738
sL2631L
g3739
sL2632L
g3740
sL2633L
g3741
sL2634L
g3742
sL2635L
g3743
sL2636L
g3744
sL2637L
g3745
sL2638L
g3746
sL2639L
g3747
sL2640L
g3748
sL2641L
g3749
sL2642L
g3750
sL2643L
g3751
sL2644L
g3752
sL2645L
g3753
sL2646L
g3754
sL2647L
g3755
sL2648L
g3756
sL2649L
g3757
sL2650L
g3758
sL2651L
g3759
sL2652L
g3760
sL2653L
g3761
sL2654L
g3762
sL2655L
g3763
sL2656L
g3764
sL2657L
g3765
sL2658L
g3766
sL2659L
g3767
sL2660L
g3768
sL2661L
g3769
sL2662L
g3770
sL2663L
g3771
sL2664L
g3772
sL2665L
g3773
sL2666L
g3774
sL2667L
g3775
sL2668L
g3776
sL2669L
g3777
sL2670L
g3778
sL2671L
g3779
sL2672L
g3780
sL2673L
g3781
sL2674L
g3782
sL2675L
g3783
sL2676L
g3784
sL2677L
g3785
sL2678L
g3786
sL2679L
g3787
sL2680L
g3788
sL2681L
g3789
sL2682L
g3790
sL2683L
g3791
sL2684L
g3792
sL2685L
g3793
sL2686L
g3794
sL2687L
g3795
sL2688L
g3796
sL2689L
g3797
sL2690L
g3798
sL2691L
g3799
sL2692L
g3800
sL2693L
g3801
sL2694L
g3802
sL2695L
g3803
sL2696L
g3804
sL2697L
g3805
sL2698L
g3806
sL2699L
g3807
sL2700L
g3808
sL2701L
g3809
sL2702L
g3810
sL2703L
g3811
sL2704L
g3812
sL2705L
g3813
sL2706L
g3814
sL2707L
g3815
sL2708L
g3816
sL2709L
g3817
sL2710L
g3818
sL2711L
g3819
sL2712L
g3820
sL2713L
g3821
sL2714L
g3822
sL2715L
g3823
sL2716L
g3824
sL2717L
g3825
sL2718L
g3826
sL2719L
g3827
sL2720L
g3828
sL2721L
g3829
sL2722L
g3830
sL2723L
g3831
sL2724L
g3832
sL2725L
g3833
sL2726L
g3834
sL2727L
g3835
sL2728L
g3836
sL2729L
g3837
sL2730L
g3838
sL2731L
g3839
sL2732L
g3840
sL2733L
g3841
sL2734L
g3842
sL2735L
g3843
sL2736L
g3844
sL2737L
g3845
sL2738L
g3846
sL2739L
g3847
sL2740L
g3848
sL2741L
g3849
sL2742L
g3850
sL2743L
g3851
sL2744L
g3852
sL2745L
g3853
sL2746L
g3854
sL2747L
g3855
sL2748L
g3856
sL2749L
g3857
sL2750L
g3858
sL2751L
g3859
sL2752L
g3860
sL2753L
g3861
sL2754L
g3862
sL2755L
g3863
sL2756L
g3864
sL2757L
g3865
sL2758L
g3866
sL2759L
g3867
sL2760L
g3868
sL2761L
g3869
sL2762L
g3870
sL2763L
g3871
sL2764L
g3872
sL2765L
g3873
sL2766L
g3874
sL2767L
g3875
sL2768L
g3876
sL2769L
g3877
sL2770L
g3878
sL2771L
g3879
sL2772L
g3880
sL2773L
g3881
sL2774L
g3882
sL2775L
g3883
sL2776L
g3884
sL2777L
g3885
sL2778L
g3886
sL2779L
g3887
sL2780L
g3888
sL2781L
g3889
sL2782L
g3890
sL2783L
g3891
sL2784L
g3892
sL2785L
g3893
sL2786L
g3894
sL2787L
g3895
sL2788L
g3896
sL2789L
g3897
sL2790L
g3898
sL2791L
g3899
sL2792L
g3900
sL2793L
g3901
sL2794L
g3902
sL2795L
g3903
sL2796L
g3904
sL2797L
g3905
sL2798L
g3906
sL2799L
g3907
sL2800L
g3908
sL2801L
g3909
sL2802L
g3910
sL2803L
g3911
sL2804L
g3912
sL2805L
g3913
sL2806L
g3914
sL2807L
g3915
sL2808L
g3916
sL2809L
g3917
sL2810L
g3918
sL2811L
g3919
sL2812L
g3920
sL2813L
g3921
sL2814L
g3922
sL2815L
g3923
sL2816L
g3924
sL2817L
g3925
sL2818L
g3926
sL2819L
g3927
sL2820L
g3928
sL2821L
g3929
sL2822L
g3930
sL2823L
g3931
sL2824L
g3932
sL2825L
g3933
sL2826L
g3934
sL2827L
g3935
sL2828L
g3936
sL2829L
g3937
sL2830L
g3938
sL2831L
g3939
sL2832L
g3940
sL2833L
g3941
sL2834L
g3942
sL2835L
g3943
sL2836L
g3944
sL2837L
g3945
sL2838L
g3946
sL2839L
g3947
sL2840L
g3948
sL2841L
g3949
sL2842L
g3950
sL2843L
g3951
sL2844L
g3952
sL2845L
g3953
sL2846L
g3954
sL2847L
g3955
sL2848L
g3956
sL2849L
g3957
sL2850L
g3958
sL2851L
g3959
sL2852L
g3960
sL2853L
g3961
sL2854L
g3962
sL2855L
g3963
sL2856L
g3964
sL2857L
g3965
sL2858L
g3966
sL2859L
g3967
sL2860L
g3968
sL2861L
g3969
sL2862L
g3970
sL2863L
g3971
sL2864L
g3972
sL2865L
g3973
sL2866L
g3974
sL2867L
g3975
sL2868L
g3976
sL2869L
g3977
sL2870L
g3978
sL2871L
g3979
sL2872L
g3980
sL2873L
g3981
sL2874L
g3982
sL2875L
g3983
sL2876L
g3984
sL2877L
g3985
sL2878L
g3986
sL2879L
g3987
sL2880L
g3988
sL2881L
g3989
sL2882L
g3990
sL2883L
g3991
sL2884L
g3992
sL2885L
g3993
sL2886L
g3994
sL2887L
g3995
sL2888L
g3996
sL2889L
g3997
sL2890L
g3998
sL2891L
g3999
sL2892L
g4000
sL2893L
g4001
sL2894L
g4002
sL2895L
g4003
sL2896L
g4004
sL2897L
g4005
sL2898L
g4006
sL2899L
g4007
sL2900L
g4008
sL2901L
g4009
sL2902L
g4010
sL2903L
g4011
sL2904L
g4012
sL2905L
g4013
sL2906L
g4014
sL2907L
g4015
sL2908L
g4016
sL2909L
g4017
sL2910L
g4018
sL2911L
g4019
sL2912L
g4020
sL2913L
g4021
sL2914L
g4022
sL2915L
g4023
sL2916L
g4024
sL2917L
g4025
sL2918L
g4026
sL2919L
g4027
sL2920L
g4028
sL2921L
g4029
sL2922L
g4030
sL2923L
g4031
sL2924L
g4032
sL2925L
g4033
sL2926L
g4034
sL2927L
g4035
sL2928L
g4036
sL2929L
g4037
sL2930L
g4038
sL2931L
g4039
sL2932L
g4040
sL2933L
g4041
sL2934L
g4042
sL2935L
g4043
sL2936L
g4044
sL2937L
g4045
sL2938L
g4046
sL2939L
g4047
sL2940L
g4048
sL2941L
g4049
sL2942L
g4050
sL2943L
g4051
sL2944L
g4052
sL2945L
g4053
sL2946L
g4054
sL2947L
g4055
sL2948L
g4056
sL2949L
g4057
sL2950L
g4058
sL2951L
g4059
sL2952L
g4060
sL2953L
g4061
sL2954L
g4062
sL2955L
g4063
sL2956L
g4064
sL2957L
g4065
sL2958L
g4066
sL2959L
g4067
sL2960L
g4068
sL2961L
g4069
sL2962L
g4070
sL2963L
g4071
sL2964L
g4072
sL2965L
g4073
sL2966L
g4074
sL2967L
g4075
sL2968L
g4076
sL2969L
g4077
sL2970L
g4078
sL2971L
g4079
sL2972L
g4080
sL2973L
g4081
sL2974L
g4082
sL2975L
g4083
sL2976L
g4084
sL2977L
g4085
sL2978L
g4086
sL2979L
g4087
sL2980L
g4088
sL2981L
g4089
sL2982L
g4090
sL2983L
g4091
sL2984L
g4092
sL2985L
g4093
sL2986L
g4094
sL2987L
g4095
sL2988L
g4096
sL2989L
g4097
sL2990L
g4098
sL2991L
g4099
sL2992L
g4100
sL2993L
g4101
sL2994L
g4102
sL2995L
g4103
sL2996L
g4104
sL2997L
g4105
sL2998L
g4106
sL2999L
g4107
sL3000L
g4108
sL3001L
g4109
sL3002L
g4110
sL3003L
g4111
sL3004L
g4112
sL3005L
g4113
sL3006L
g4114
sL3007L
g4115
sL3008L
g4116
sL3009L
g4117
sL3010L
g4118
sL3011L
g4119
sL3012L
g4120
sL3013L
g4121
sL3014L
g4122
sL3015L
g4123
sL3016L
g4124
sL3017L
g4125
sL3018L
g4126
sL3019L
g4127
sL3020L
g4128
sL3021L
g4129
sL3022L
g4130
sL3023L
g4131
sL3024L
g4132
sL3025L
g4133
sL3026L
g4134
sL3027L
g4135
sL3028L
g4136
sL3029L
g4137
sL3030L
g4138
sL3031L
g4139
sL3032L
g4140
sL3033L
g4141
sL3034L
g4142
sL3035L
g4143
sL3036L
g4144
sL3037L
g4145
sL3038L
g4146
sL3039L
g4147
sL3040L
g4148
sL3041L
g4149
sL3042L
g4150
sL3043L
g4151
sL3044L
g4152
sL3045L
g4153
sL3046L
g4154
sL3047L
g4155
sL3048L
g4156
sL3049L
g4157
sL3050L
g4158
sL3051L
g4159
sL3052L
g4160
sL3053L
g4161
sL3054L
g4162
sL3055L
g4163
sL3056L
g4164
sL3057L
g4165
sL3058L
g4166
sL3059L
g4167
sL3060L
g4168
sL3061L
g4169
sL3062L
g4170
sL3063L
g4171
sL3064L
g4172
sL3065L
g4173
sL3066L
g4174
sL3067L
g4175
sL3068L
g4176
sL3069L
g4177
sL3070L
g4178
sL3071L
g4179
sL3072L
g4180
sL3073L
g4181
sL3074L
g4182
sL3075L
g4183
sL3076L
g4184
sL3077L
g4185
sL3078L
g4186
sL3079L
g4187
sL3080L
g4188
sL3081L
g4189
sL3082L
g4190
sL3083L
g4191
sL3084L
g4192
sL3085L
g4193
sL3086L
g4194
sL3087L
g4195
sL3088L
g4196
sL3089L
g4197
sL3090L
g4198
sL3091L
g4199
sL3092L
g4200
sL3093L
g4201
sL3094L
g4202
sL3095L
g4203
sL3096L
g4204
sL3097L
g4205
sL3098L
g4206
sL3099L
g4207
sL3100L
g4208
sL3101L
g4209
sL3102L
g4210
sL3103L
g4211
sL3104L
g4212
sL3105L
g4213
sL3106L
g4214
sL3107L
g4215
sL3108L
g4216
sL3109L
g4217
sL3110L
g4218
sL3111L
g4219
sL3112L
g4220
sL3113L
g4221
sL3114L
g4222
sL3115L
g4223
sL3116L
g4224
sL3117L
g4225
sL3118L
g4226
sL3119L
g4227
sL3120L
g4228
sL3121L
g4229
sL3122L
g4230
sL3123L
g4231
sL3124L
g4232
sL3125L
g4233
sL3126L
g4234
sL3127L
g4235
sL3128L
g4236
sL3129L
g4237
sL3130L
g4238
sL3131L
g4239
sL3132L
g4240
sL3133L
g4241
sL3134L
g4242
sL3135L
g4243
sL3136L
g4244
sL3137L
g4245
sL3138L
g4246
sL3139L
g4247
sL3140L
g4248
sL3141L
g4249
sL3142L
g4250
sL3143L
g4251
sL3144L
g4252
sL3145L
g4253
sL3146L
g4254
sL3147L
g4255
sL3148L
g4256
sL3149L
g4257
sL3150L
g4258
sL3151L
g4259
sL3152L
g4260
sL3153L
g4261
sL3154L
g4262
sL3155L
g4263
sL3156L
g4264
sL3157L
g4265
sL3158L
g4266
sL3159L
g4267
sL3160L
g4268
sL3161L
g4269
sL3162L
g4270
sL3163L
g4271
sL3164L
g4272
sL3165L
g4273
sL3166L
g4274
sL3167L
g4275
sL3168L
g4276
sL3169L
g4277
sL3170L
g4278
sL3171L
g4279
sL3172L
g4280
sL3173L
g4281
sL3174L
g4282
sL3175L
g4283
sL3176L
g4284
sL3177L
g4285
sL3178L
g4286
sL3179L
g4287
sL3180L
g4288
sL3181L
g4289
sL3182L
g4290
sL3183L
g4291
sL3184L
g4292
sL3185L
g4293
sL3186L
g4294
sL3187L
g4295
sL3188L
g4296
sL3189L
g4297
sL3190L
g4298
sL3191L
g4299
sL3192L
g4300
sL3193L
g4301
sL3194L
g4302
sL3195L
g4303
sL3196L
g4304
sL3197L
g4305
sL3198L
g4306
sL3199L
g4307
sL3200L
g4308
sL3201L
g4309
sL3202L
g4310
sL3203L
g4311
sL3204L
g4312
sL3205L
g4313
sL3206L
g4314
sL3207L
g4315
sL3208L
g4316
sL3209L
g4317
sL3210L
g4318
sL3211L
g4319
sL3212L
g4320
sL3213L
g4321
sL3214L
g4322
sL3215L
g4323
sL3216L
g4324
sL3217L
g4325
sL3218L
g4326
sL3219L
g4327
sL3220L
g4328
sL3221L
g4329
sL3222L
g4330
sL3223L
g4331
sL3224L
g4332
sL3225L
g4333
sL3226L
g4334
sL3227L
g4335
sL3228L
g4336
sL3229L
g4337
sL3230L
g4338
sL3231L
g4339
sL3232L
g4340
sL3233L
g4341
sL3234L
g4342
sL3235L
g4343
sL3236L
g4344
sL3237L
g4345
sL3238L
g4346
sL3239L
g4347
sL3240L
g4348
sL3241L
g4349
sL3242L
g4350
sL3243L
g4351
sL3244L
g4352
sL3245L
g4353
sL3246L
g4354
sL3247L
g4355
sL3248L
g4356
sL3249L
g4357
sL3250L
g4358
sL3251L
g4359
sL3252L
g4360
sL3253L
g4361
sL3254L
g4362
sL3255L
g4363
sL3256L
g4364
sL3257L
g4365
sL3258L
g4366
sL3259L
g4367
sL3260L
g4368
sL3261L
g4369
sL3262L
g4370
sL3263L
g4371
sL3264L
g4372
sL3265L
g4373
sL3266L
g4374
sL3267L
g4375
sL3268L
g4376
sL3269L
g4377
sL3270L
g4378
sL3271L
g4379
sL3272L
g4380
sL3273L
g4381
sL3274L
g4382
sL3275L
g4383
sL3276L
g4384
sL3277L
g4385
sL3278L
g4386
sL3279L
g4387
sL3280L
g4388
sL3281L
g4389
sL3282L
g4390
sL3283L
g4391
sL3284L
g4392
sL3285L
g4393
sL3286L
g4394
sL3287L
g4395
sL3288L
g4396
sL3289L
g4397
sL3290L
g4398
sL3291L
g4399
sL3292L
g4400
sL3293L
g4401
sL3294L
g4402
sL3295L
g4403
sL3296L
g4404
sL3297L
g4405
sL3298L
g4406
sL3299L
g4407
sL3300L
g4408
sL3301L
g4409
sL3302L
g4410
sL3303L
g4411
sL3304L
g4412
sL3305L
g4413
sL3306L
g4414
sL3307L
g4415
sL3308L
g4416
sL3309L
g4417
sL3310L
g4418
sL3311L
g4419
sL3312L
g4420
sL3313L
g4421
sL3314L
g4422
sL3315L
g4423
sL3316L
g4424
sL3317L
g4425
sL3318L
g4426
sL3319L
g4427
sL3320L
g4428
sL3321L
g4429
sL3322L
g4430
sL3323L
g4431
sL3324L
g4432
sL3325L
g4433
sL3326L
g4434
sL3327L
g4435
sL3328L
g4436
sL3329L
g4437
sL3330L
g4438
sL3331L
g4439
sL3332L
g4440
sL3333L
g4441
sL3334L
g4442
sL3335L
g4443
sL3336L
g4444
sL3337L
g4445
sL3338L
g4446
sL3339L
g4447
sL3340L
g4448
sL3341L
g4449
sL3342L
g4450
sL3343L
g4451
sL3344L
g4452
sL3345L
g4453
sL3346L
g4454
sL3347L
g4455
sL3348L
g4456
sL3349L
g4457
sL3350L
g4458
sL3351L
g4459
sL3352L
g4460
sL3353L
g4461
sL3354L
g4462
sL3355L
g4463
sL3356L
g4464
sL3357L
g4465
sL3358L
g4466
sL3359L
g4467
sL3360L
g4468
sL3361L
g4469
sL3362L
g4470
sL3363L
g4471
sL3364L
g4472
sL3365L
g4473
sL3366L
g4474
sL3367L
g4475
sL3368L
g4476
sL3369L
g4477
sL3370L
g4478
sL3371L
g4479
sL3372L
g4480
sL3373L
g4481
sL3374L
g4482
sL3375L
g4483
sL3376L
g4484
sL3377L
g4485
sL3378L
g4486
sL3379L
g4487
sL3380L
g4488
sL3381L
g4489
sL3382L
g4490
sL3383L
g4491
sL3384L
g4492
sL3385L
g4493
sL3386L
g4494
sL3387L
g4495
sL3388L
g4496
sL3389L
g4497
sL3390L
g4498
sL3391L
g4499
sL3392L
g4500
sL3393L
g4501
sL3394L
g4502
sL3395L
g4503
sL3396L
g4504
sL3397L
g4505
sL3398L
g4506
sL3399L
g4507
sL3400L
g4508
sL3401L
g4509
sL3402L
g4510
sL3403L
g4511
sL3404L
g4512
sL3405L
g4513
sL3406L
g4514
sL3407L
g4515
sL3408L
g4516
sL3409L
g4517
sL3410L
g4518
sL3411L
g4519
sL3412L
g4520
sL3413L
g4521
sL3414L
g4522
sL3415L
g4523
sL3416L
g4524
sL3417L
g4525
sL3418L
g4526
sL3419L
g4527
sL3420L
g4528
sL3421L
g4529
sL3422L
g4530
sL3423L
g4531
sL3424L
g4532
sL3425L
g4533
sL3426L
g4534
sL3427L
g4535
sL3428L
g4536
sL3429L
g4537
sL3430L
g4538
sL3431L
g4539
sL3432L
g4540
sL3433L
g4541
sL3434L
g4542
sL3435L
g4543
sL3436L
g4544
sL3437L
g4545
sL3438L
g4546
sL3439L
g4547
sL3440L
g4548
sL3441L
g4549
sL3442L
g4550
sL3443L
g4551
sL3444L
g4552
sL3445L
g4553
sL3446L
g4554
sL3447L
g4555
sL3448L
g4556
sL3449L
g4557
sL3450L
g4558
sL3451L
g4559
sL3452L
g4560
sL3453L
g4561
sL3454L
g4562
sL3455L
g4563
sL3456L
g4564
sL3457L
g4565
sL3458L
g4566
sL3459L
g4567
sL3460L
g4568
sL3461L
g4569
sL3462L
g4570
sL3463L
g4571
sL3464L
g4572
sL3465L
g4573
sL3466L
g4574
sL3467L
g4575
sL3468L
g4576
sL3469L
g4577
sL3470L
g4578
sL3471L
g4579
sL3472L
g4580
sL3473L
g4581
sL3474L
g4582
sL3475L
g4583
sL3476L
g4584
sL3477L
g4585
sL3478L
g4586
sL3479L
g4587
sL3480L
g4588
sL3481L
g4589
sL3482L
g4590
sL3483L
g4591
sL3484L
g4592
sL3485L
g4593
sL3486L
g4594
sL3487L
g4595
sL3488L
g4596
sL3489L
g4597
sL3490L
g4598
sL3491L
g4599
sL3492L
g4600
sL3493L
g4601
sL3494L
g4602
sL3495L
g4603
sL3496L
g4604
sL3497L
g4605
sL3498L
g4606
sL3499L
g4607
sL3500L
g4608
sL3501L
g4609
sL3502L
g4610
sL3503L
g4611
sL3504L
g4612
sL3505L
g4613
sL3506L
g4614
sL3507L
g4615
sL3508L
g4616
sL3509L
g4617
sL3510L
g4618
sL3511L
g4619
sL3512L
g4620
sL3513L
g4621
sL3514L
g4622
sL3515L
g4623
sL3516L
g4624
sL3517L
g4625
sL3518L
g4626
sL3519L
g4627
sL3520L
g4628
sL3521L
g4629
sL3522L
g4630
sL3523L
g4631
sL3524L
g4632
sL3525L
g4633
sL3526L
g4634
sL3527L
g4635
sL3528L
g4636
sL3529L
g4637
sL3530L
g4638
sL3531L
g4639
sL3532L
g4640
sL3533L
g4641
sL3534L
g4642
sL3535L
g4643
sL3536L
g4644
sL3537L
g4645
sL3538L
g4646
sL3539L
g4647
sL3540L
g4648
sL3541L
g4649
sL3542L
g4650
sL3543L
g4651
sL3544L
g4652
sL3545L
g4653
sL3546L
g4654
sL3547L
g4655
sL3548L
g4656
sL3549L
g4657
sL3550L
g4658
sL3551L
g4659
sL3552L
g4660
sL3553L
g4661
sL3554L
g4662
sL3555L
g4663
sL3556L
g4664
sL3557L
g4665
sL3558L
g4666
sL3559L
g4667
sL3560L
g4668
sL3561L
g4669
sL3562L
g4670
sL3563L
g4671
sL3564L
g4672
sL3565L
g4673
sL3566L
g4674
sL3567L
g4675
sL3568L
g4676
sL3569L
g4677
sL3570L
g4678
sL3571L
g4679
sL3572L
g4680
sL3573L
g4681
sL3574L
g4682
sL3575L
g4683
sL3576L
g4684
sL3577L
g4685
sL3578L
g4686
sL3579L
g4687
sL3580L
g4688
sL3581L
g4689
sL3582L
g4690
sL3583L
g4691
sL3584L
g4692
sL3585L
g4693
sL3586L
g4694
sL3587L
g4695
sL3588L
g4696
sL3589L
g4697
sL3590L
g4698
sL3591L
g4699
sL3592L
g4700
sL3593L
g4701
sL3594L
g4702
sL3595L
g4703
sL3596L
g4704
sL3597L
g4705
sL3598L
g4706
sL3599L
g4707
sL3600L
g4708
sL3601L
g4709
sL3602L
g4710
sL3603L
g4711
sL3604L
g4712
sL3605L
g4713
sL3606L
g4714
sL3607L
g4715
sL3608L
g4716
sL3609L
g4717
sL3610L
g4718
sL3611L
g4719
sL3612L
g4720
sL3613L
g4721
sL3614L
g4722
sL3615L
g4723
sL3616L
g4724
sL3617L
g4725
sL3618L
g4726
sL3619L
g4727
sL3620L
g4728
sL3621L
g4729
sL3622L
g4730
sL3623L
g4731
sL3624L
g4732
sL3625L
g4733
sL3626L
g4734
sL3627L
g4735
sL3628L
g4736
stp4738
.